(lp0
S'ontonotes-release-5.0/data/files/data/english/annotations/bn/cnn/00/cnn_0096.coref'
p1
aS'ontonotes-release-5.0/data/files/data/english/annotations/bn/voa/00/voa_0053.coref'
p2
aS'ontonotes-release-5.0/data/files/data/english/annotations/bn/cnn/02/cnn_0211.coref'
p3
aS'ontonotes-release-5.0/data/files/data/english/annotations/bn/cnn/01/cnn_0181.coref'
p4
aS'ontonotes-release-5.0/data/files/data/english/annotations/bn/abc/00/abc_0012.coref'
p5
aS'ontonotes-release-5.0/data/files/data/english/annotations/bn/cnn/04/cnn_0417.coref'
p6
aS'ontonotes-release-5.0/data/files/data/english/annotations/bn/voa/02/voa_0226.coref'
p7
aS'ontonotes-release-5.0/data/files/data/english/annotations/bn/cnn/00/cnn_0035.coref'
p8
aS'ontonotes-release-5.0/data/files/data/english/annotations/bn/cnn/02/cnn_0271.coref'
p9
aS'ontonotes-release-5.0/data/files/data/english/annotations/bn/cnn/01/cnn_0185.coref'
p10
aS'ontonotes-release-5.0/data/files/data/english/annotations/bn/abc/00/abc_0036.coref'
p11
aS'ontonotes-release-5.0/data/files/data/english/annotations/bn/abc/00/abc_0069.coref'
p12
aS'ontonotes-release-5.0/data/files/data/english/annotations/bn/cnn/02/cnn_0258.coref'
p13
aS'ontonotes-release-5.0/data/files/data/english/annotations/bn/nbc/00/nbc_0024.coref'
p14
aS'ontonotes-release-5.0/data/files/data/english/annotations/bn/pri/00/pri_0067.coref'
p15
aS'ontonotes-release-5.0/data/files/data/english/annotations/bn/pri/00/pri_0019.coref'
p16
aS'ontonotes-release-5.0/data/files/data/english/annotations/bn/cnn/00/cnn_0037.coref'
p17
aS'ontonotes-release-5.0/data/files/data/english/annotations/bn/cnn/00/cnn_0093.coref'
p18
aS'ontonotes-release-5.0/data/files/data/english/annotations/bn/voa/01/voa_0122.coref'
p19
aS'ontonotes-release-5.0/data/files/data/english/annotations/bn/voa/00/voa_0010.coref'
p20
aS'ontonotes-release-5.0/data/files/data/english/annotations/bn/cnn/00/cnn_0014.coref'
p21
aS'ontonotes-release-5.0/data/files/data/english/annotations/bn/voa/00/voa_0080.coref'
p22
aS'ontonotes-release-5.0/data/files/data/english/annotations/bn/pri/00/pri_0047.coref'
p23
aS'ontonotes-release-5.0/data/files/data/english/annotations/bn/cnn/00/cnn_0023.coref'
p24
aS'ontonotes-release-5.0/data/files/data/english/annotations/bn/pri/00/pri_0082.coref'
p25
aS'ontonotes-release-5.0/data/files/data/english/annotations/bn/voa/02/voa_0259.coref'
p26
aS'ontonotes-release-5.0/data/files/data/english/annotations/bn/voa/01/voa_0145.coref'
p27
aS'ontonotes-release-5.0/data/files/data/english/annotations/bn/abc/00/abc_0046.coref'
p28
aS'ontonotes-release-5.0/data/files/data/english/annotations/bn/voa/00/voa_0023.coref'
p29
aS'ontonotes-release-5.0/data/files/data/english/annotations/bn/pri/00/pri_0083.coref'
p30
aS'ontonotes-release-5.0/data/files/data/english/annotations/bn/voa/00/voa_0081.coref'
p31
aS'ontonotes-release-5.0/data/files/data/english/annotations/bn/cnn/01/cnn_0182.coref'
p32
aS'ontonotes-release-5.0/data/files/data/english/annotations/bn/voa/02/voa_0250.coref'
p33
aS'ontonotes-release-5.0/data/files/data/english/annotations/bn/cnn/00/cnn_0071.coref'
p34
aS'ontonotes-release-5.0/data/files/data/english/annotations/bn/cnn/01/cnn_0148.coref'
p35
aS'ontonotes-release-5.0/data/files/data/english/annotations/bn/abc/00/abc_0016.coref'
p36
aS'ontonotes-release-5.0/data/files/data/english/annotations/bn/cnn/00/cnn_0053.coref'
p37
aS'ontonotes-release-5.0/data/files/data/english/annotations/bn/cnn/00/cnn_0007.coref'
p38
aS'ontonotes-release-5.0/data/files/data/english/annotations/bn/cnn/01/cnn_0177.coref'
p39
aS'ontonotes-release-5.0/data/files/data/english/annotations/bn/voa/02/voa_0263.coref'
p40
aS'ontonotes-release-5.0/data/files/data/english/annotations/bn/cnn/00/cnn_0050.coref'
p41
aS'ontonotes-release-5.0/data/files/data/english/annotations/bn/cnn/03/cnn_0366.coref'
p42
aS'ontonotes-release-5.0/data/files/data/english/annotations/bn/pri/00/pri_0030.coref'
p43
aS'ontonotes-release-5.0/data/files/data/english/annotations/bn/mnb/00/mnb_0010.coref'
p44
aS'ontonotes-release-5.0/data/files/data/english/annotations/bn/cnn/00/cnn_0055.coref'
p45
aS'ontonotes-release-5.0/data/files/data/english/annotations/bn/voa/02/voa_0224.coref'
p46
aS'ontonotes-release-5.0/data/files/data/english/annotations/bn/voa/00/voa_0074.coref'
p47
aS'ontonotes-release-5.0/data/files/data/english/annotations/bn/cnn/02/cnn_0222.coref'
p48
aS'ontonotes-release-5.0/data/files/data/english/annotations/bn/voa/00/voa_0026.coref'
p49
aS'ontonotes-release-5.0/data/files/data/english/annotations/bn/cnn/00/cnn_0015.coref'
p50
aS'ontonotes-release-5.0/data/files/data/english/annotations/bn/voa/01/voa_0179.coref'
p51
aS'ontonotes-release-5.0/data/files/data/english/annotations/bn/pri/00/pri_0065.coref'
p52
aS'ontonotes-release-5.0/data/files/data/english/annotations/bn/voa/01/voa_0151.coref'
p53
aS'ontonotes-release-5.0/data/files/data/english/annotations/bn/pri/01/pri_0100.coref'
p54
aS'ontonotes-release-5.0/data/files/data/english/annotations/bn/voa/02/voa_0214.coref'
p55
aS'ontonotes-release-5.0/data/files/data/english/annotations/bn/nbc/00/nbc_0019.coref'
p56
aS'ontonotes-release-5.0/data/files/data/english/annotations/bn/cnn/01/cnn_0151.coref'
p57
aS'ontonotes-release-5.0/data/files/data/english/annotations/bn/cnn/04/cnn_0423.coref'
p58
aS'ontonotes-release-5.0/data/files/data/english/annotations/bn/cnn/00/cnn_0038.coref'
p59
aS'ontonotes-release-5.0/data/files/data/english/annotations/bn/voa/01/voa_0171.coref'
p60
aS'ontonotes-release-5.0/data/files/data/english/annotations/bn/voa/00/voa_0045.coref'
p61
aS'ontonotes-release-5.0/data/files/data/english/annotations/bn/mnb/00/mnb_0022.coref'
p62
aS'ontonotes-release-5.0/data/files/data/english/annotations/bn/cnn/01/cnn_0130.coref'
p63
aS'ontonotes-release-5.0/data/files/data/english/annotations/bn/cnn/00/cnn_0060.coref'
p64
aS'ontonotes-release-5.0/data/files/data/english/annotations/bn/abc/00/abc_0043.coref'
p65
aS'ontonotes-release-5.0/data/files/data/english/annotations/bn/cnn/02/cnn_0279.coref'
p66
aS'ontonotes-release-5.0/data/files/data/english/annotations/bn/nbc/00/nbc_0020.coref'
p67
aS'ontonotes-release-5.0/data/files/data/english/annotations/bn/pri/00/pri_0079.coref'
p68
aS'ontonotes-release-5.0/data/files/data/english/annotations/bn/voa/01/voa_0196.coref'
p69
aS'ontonotes-release-5.0/data/files/data/english/annotations/bn/cnn/03/cnn_0387.coref'
p70
aS'ontonotes-release-5.0/data/files/data/english/annotations/bn/voa/01/voa_0144.coref'
p71
aS'ontonotes-release-5.0/data/files/data/english/annotations/bn/voa/00/voa_0044.coref'
p72
aS'ontonotes-release-5.0/data/files/data/english/annotations/bn/voa/00/voa_0046.coref'
p73
aS'ontonotes-release-5.0/data/files/data/english/annotations/bn/cnn/01/cnn_0187.coref'
p74
aS'ontonotes-release-5.0/data/files/data/english/annotations/bn/cnn/02/cnn_0212.coref'
p75
aS'ontonotes-release-5.0/data/files/data/english/annotations/bn/voa/01/voa_0190.coref'
p76
aS'ontonotes-release-5.0/data/files/data/english/annotations/bn/cnn/02/cnn_0232.coref'
p77
aS'ontonotes-release-5.0/data/files/data/english/annotations/bn/cnn/02/cnn_0263.coref'
p78
aS'ontonotes-release-5.0/data/files/data/english/annotations/bn/abc/00/abc_0055.coref'
p79
aS'ontonotes-release-5.0/data/files/data/english/annotations/bn/cnn/03/cnn_0354.coref'
p80
aS'ontonotes-release-5.0/data/files/data/english/annotations/bn/pri/00/pri_0059.coref'
p81
aS'ontonotes-release-5.0/data/files/data/english/annotations/bn/voa/01/voa_0119.coref'
p82
aS'ontonotes-release-5.0/data/files/data/english/annotations/bn/abc/00/abc_0061.coref'
p83
aS'ontonotes-release-5.0/data/files/data/english/annotations/bn/cnn/01/cnn_0196.coref'
p84
aS'ontonotes-release-5.0/data/files/data/english/annotations/bn/voa/00/voa_0067.coref'
p85
aS'ontonotes-release-5.0/data/files/data/english/annotations/bn/voa/01/voa_0172.coref'
p86
aS'ontonotes-release-5.0/data/files/data/english/annotations/bn/nbc/00/nbc_0025.coref'
p87
aS'ontonotes-release-5.0/data/files/data/english/annotations/bn/pri/00/pri_0074.coref'
p88
aS'ontonotes-release-5.0/data/files/data/english/annotations/bn/voa/00/voa_0064.coref'
p89
aS'ontonotes-release-5.0/data/files/data/english/annotations/bn/voa/00/voa_0071.coref'
p90
aS'ontonotes-release-5.0/data/files/data/english/annotations/bn/pri/00/pri_0036.coref'
p91
aS'ontonotes-release-5.0/data/files/data/english/annotations/bn/voa/02/voa_0240.coref'
p92
aS'ontonotes-release-5.0/data/files/data/english/annotations/bn/cnn/04/cnn_0432.coref'
p93
aS'ontonotes-release-5.0/data/files/data/english/annotations/bn/abc/00/abc_0047.coref'
p94
aS'ontonotes-release-5.0/data/files/data/english/annotations/bn/cnn/02/cnn_0218.coref'
p95
aS'ontonotes-release-5.0/data/files/data/english/annotations/bn/abc/00/abc_0049.coref'
p96
aS'ontonotes-release-5.0/data/files/data/english/annotations/bn/voa/01/voa_0114.coref'
p97
aS'ontonotes-release-5.0/data/files/data/english/annotations/bn/cnn/01/cnn_0112.coref'
p98
aS'ontonotes-release-5.0/data/files/data/english/annotations/bn/pri/00/pri_0049.coref'
p99
aS'ontonotes-release-5.0/data/files/data/english/annotations/bn/cnn/01/cnn_0101.coref'
p100
aS'ontonotes-release-5.0/data/files/data/english/annotations/bn/voa/00/voa_0062.coref'
p101
aS'ontonotes-release-5.0/data/files/data/english/annotations/bn/voa/02/voa_0232.coref'
p102
aS'ontonotes-release-5.0/data/files/data/english/annotations/bn/cnn/02/cnn_0225.coref'
p103
aS'ontonotes-release-5.0/data/files/data/english/annotations/bn/cnn/02/cnn_0295.coref'
p104
aS'ontonotes-release-5.0/data/files/data/english/annotations/bn/cnn/03/cnn_0350.coref'
p105
aS'ontonotes-release-5.0/data/files/data/english/annotations/bn/voa/00/voa_0041.coref'
p106
aS'ontonotes-release-5.0/data/files/data/english/annotations/bn/voa/01/voa_0186.coref'
p107
aS'ontonotes-release-5.0/data/files/data/english/annotations/bn/abc/00/abc_0002.coref'
p108
aS'ontonotes-release-5.0/data/files/data/english/annotations/bn/voa/00/voa_0012.coref'
p109
aS'ontonotes-release-5.0/data/files/data/english/annotations/bn/abc/00/abc_0034.coref'
p110
aS'ontonotes-release-5.0/data/files/data/english/annotations/bn/cnn/03/cnn_0360.coref'
p111
aS'ontonotes-release-5.0/data/files/data/english/annotations/bn/cnn/00/cnn_0097.coref'
p112
aS'ontonotes-release-5.0/data/files/data/english/annotations/bn/abc/00/abc_0027.coref'
p113
aS'ontonotes-release-5.0/data/files/data/english/annotations/bn/voa/01/voa_0127.coref'
p114
aS'ontonotes-release-5.0/data/files/data/english/annotations/bn/cnn/02/cnn_0278.coref'
p115
aS'ontonotes-release-5.0/data/files/data/english/annotations/bn/pri/00/pri_0096.coref'
p116
aS'ontonotes-release-5.0/data/files/data/english/annotations/bn/abc/00/abc_0067.coref'
p117
aS'ontonotes-release-5.0/data/files/data/english/annotations/bn/voa/02/voa_0247.coref'
p118
aS'ontonotes-release-5.0/data/files/data/english/annotations/bn/cnn/03/cnn_0322.coref'
p119
aS'ontonotes-release-5.0/data/files/data/english/annotations/bn/voa/01/voa_0160.coref'
p120
aS'ontonotes-release-5.0/data/files/data/english/annotations/bn/cnn/00/cnn_0099.coref'
p121
aS'ontonotes-release-5.0/data/files/data/english/annotations/bn/cnn/00/cnn_0058.coref'
p122
aS'ontonotes-release-5.0/data/files/data/english/annotations/bn/cnn/01/cnn_0142.coref'
p123
aS'ontonotes-release-5.0/data/files/data/english/annotations/bn/cnn/00/cnn_0077.coref'
p124
aS'ontonotes-release-5.0/data/files/data/english/annotations/bn/nbc/00/nbc_0026.coref'
p125
aS'ontonotes-release-5.0/data/files/data/english/annotations/bn/cnn/02/cnn_0244.coref'
p126
aS'ontonotes-release-5.0/data/files/data/english/annotations/bn/cnn/00/cnn_0043.coref'
p127
aS'ontonotes-release-5.0/data/files/data/english/annotations/bn/cnn/00/cnn_0024.coref'
p128
aS'ontonotes-release-5.0/data/files/data/english/annotations/bn/cnn/03/cnn_0367.coref'
p129
aS'ontonotes-release-5.0/data/files/data/english/annotations/bn/cnn/02/cnn_0248.coref'
p130
aS'ontonotes-release-5.0/data/files/data/english/annotations/bn/cnn/03/cnn_0302.coref'
p131
aS'ontonotes-release-5.0/data/files/data/english/annotations/bn/nbc/00/nbc_0013.coref'
p132
aS'ontonotes-release-5.0/data/files/data/english/annotations/bn/cnn/01/cnn_0195.coref'
p133
aS'ontonotes-release-5.0/data/files/data/english/annotations/bn/cnn/03/cnn_0325.coref'
p134
aS'ontonotes-release-5.0/data/files/data/english/annotations/bn/cnn/03/cnn_0370.coref'
p135
aS'ontonotes-release-5.0/data/files/data/english/annotations/bn/cnn/03/cnn_0363.coref'
p136
aS'ontonotes-release-5.0/data/files/data/english/annotations/bn/cnn/04/cnn_0431.coref'
p137
aS'ontonotes-release-5.0/data/files/data/english/annotations/bn/voa/00/voa_0089.coref'
p138
aS'ontonotes-release-5.0/data/files/data/english/annotations/bn/cnn/03/cnn_0336.coref'
p139
aS'ontonotes-release-5.0/data/files/data/english/annotations/bn/cnn/04/cnn_0411.coref'
p140
aS'ontonotes-release-5.0/data/files/data/english/annotations/bn/pri/00/pri_0026.coref'
p141
aS'ontonotes-release-5.0/data/files/data/english/annotations/bn/voa/01/voa_0103.coref'
p142
aS'ontonotes-release-5.0/data/files/data/english/annotations/bn/pri/00/pri_0087.coref'
p143
aS'ontonotes-release-5.0/data/files/data/english/annotations/bn/voa/02/voa_0228.coref'
p144
aS'ontonotes-release-5.0/data/files/data/english/annotations/bn/voa/02/voa_0246.coref'
p145
aS'ontonotes-release-5.0/data/files/data/english/annotations/bn/pri/00/pri_0042.coref'
p146
aS'ontonotes-release-5.0/data/files/data/english/annotations/bn/voa/01/voa_0165.coref'
p147
aS'ontonotes-release-5.0/data/files/data/english/annotations/bn/nbc/00/nbc_0029.coref'
p148
aS'ontonotes-release-5.0/data/files/data/english/annotations/bn/abc/00/abc_0008.coref'
p149
aS'ontonotes-release-5.0/data/files/data/english/annotations/bn/pri/00/pri_0023.coref'
p150
aS'ontonotes-release-5.0/data/files/data/english/annotations/bn/voa/02/voa_0218.coref'
p151
aS'ontonotes-release-5.0/data/files/data/english/annotations/bn/mnb/00/mnb_0025.coref'
p152
aS'ontonotes-release-5.0/data/files/data/english/annotations/bn/cnn/02/cnn_0255.coref'
p153
aS'ontonotes-release-5.0/data/files/data/english/annotations/bn/voa/01/voa_0183.coref'
p154
aS'ontonotes-release-5.0/data/files/data/english/annotations/bn/cnn/02/cnn_0224.coref'
p155
aS'ontonotes-release-5.0/data/files/data/english/annotations/bn/abc/00/abc_0060.coref'
p156
aS'ontonotes-release-5.0/data/files/data/english/annotations/bn/abc/00/abc_0025.coref'
p157
aS'ontonotes-release-5.0/data/files/data/english/annotations/bn/cnn/02/cnn_0284.coref'
p158
aS'ontonotes-release-5.0/data/files/data/english/annotations/bn/cnn/04/cnn_0425.coref'
p159
aS'ontonotes-release-5.0/data/files/data/english/annotations/bn/pri/00/pri_0063.coref'
p160
aS'ontonotes-release-5.0/data/files/data/english/annotations/bn/voa/02/voa_0202.coref'
p161
aS'ontonotes-release-5.0/data/files/data/english/annotations/bn/pri/01/pri_0112.coref'
p162
aS'ontonotes-release-5.0/data/files/data/english/annotations/bn/nbc/00/nbc_0032.coref'
p163
aS'ontonotes-release-5.0/data/files/data/english/annotations/bn/voa/00/voa_0018.coref'
p164
aS'ontonotes-release-5.0/data/files/data/english/annotations/bn/voa/01/voa_0166.coref'
p165
aS'ontonotes-release-5.0/data/files/data/english/annotations/bn/pri/00/pri_0085.coref'
p166
aS'ontonotes-release-5.0/data/files/data/english/annotations/bn/cnn/02/cnn_0299.coref'
p167
aS'ontonotes-release-5.0/data/files/data/english/annotations/bn/voa/00/voa_0068.coref'
p168
aS'ontonotes-release-5.0/data/files/data/english/annotations/bn/cnn/03/cnn_0349.coref'
p169
aS'ontonotes-release-5.0/data/files/data/english/annotations/bn/voa/01/voa_0147.coref'
p170
aS'ontonotes-release-5.0/data/files/data/english/annotations/bn/cnn/01/cnn_0184.coref'
p171
aS'ontonotes-release-5.0/data/files/data/english/annotations/bn/cnn/01/cnn_0174.coref'
p172
aS'ontonotes-release-5.0/data/files/data/english/annotations/bn/cnn/00/cnn_0016.coref'
p173
aS'ontonotes-release-5.0/data/files/data/english/annotations/bn/voa/01/voa_0177.coref'
p174
aS'ontonotes-release-5.0/data/files/data/english/annotations/bn/voa/02/voa_0207.coref'
p175
aS'ontonotes-release-5.0/data/files/data/english/annotations/bn/cnn/00/cnn_0057.coref'
p176
aS'ontonotes-release-5.0/data/files/data/english/annotations/bn/cnn/00/cnn_0048.coref'
p177
aS'ontonotes-release-5.0/data/files/data/english/annotations/bn/cnn/03/cnn_0341.coref'
p178
aS'ontonotes-release-5.0/data/files/data/english/annotations/bn/voa/00/voa_0048.coref'
p179
aS'ontonotes-release-5.0/data/files/data/english/annotations/bn/voa/00/voa_0016.coref'
p180
aS'ontonotes-release-5.0/data/files/data/english/annotations/bn/cnn/01/cnn_0152.coref'
p181
aS'ontonotes-release-5.0/data/files/data/english/annotations/bn/nbc/00/nbc_0039.coref'
p182
aS'ontonotes-release-5.0/data/files/data/english/annotations/bn/pri/01/pri_0111.coref'
p183
aS'ontonotes-release-5.0/data/files/data/english/annotations/bn/cnn/00/cnn_0018.coref'
p184
aS'ontonotes-release-5.0/data/files/data/english/annotations/bn/voa/00/voa_0097.coref'
p185
aS'ontonotes-release-5.0/data/files/data/english/annotations/bn/voa/00/voa_0078.coref'
p186
aS'ontonotes-release-5.0/data/files/data/english/annotations/bn/mnb/00/mnb_0024.coref'
p187
aS'ontonotes-release-5.0/data/files/data/english/annotations/bn/voa/00/voa_0042.coref'
p188
aS'ontonotes-release-5.0/data/files/data/english/annotations/bn/cnn/03/cnn_0384.coref'
p189
aS'ontonotes-release-5.0/data/files/data/english/annotations/bn/cnn/04/cnn_0401.coref'
p190
aS'ontonotes-release-5.0/data/files/data/english/annotations/bn/cnn/03/cnn_0392.coref'
p191
aS'ontonotes-release-5.0/data/files/data/english/annotations/bn/nbc/00/nbc_0027.coref'
p192
aS'ontonotes-release-5.0/data/files/data/english/annotations/bn/pri/00/pri_0031.coref'
p193
aS'ontonotes-release-5.0/data/files/data/english/annotations/bn/cnn/03/cnn_0310.coref'
p194
aS'ontonotes-release-5.0/data/files/data/english/annotations/bn/voa/02/voa_0243.coref'
p195
aS'ontonotes-release-5.0/data/files/data/english/annotations/bn/cnn/00/cnn_0025.coref'
p196
aS'ontonotes-release-5.0/data/files/data/english/annotations/bn/pri/00/pri_0017.coref'
p197
aS'ontonotes-release-5.0/data/files/data/english/annotations/bn/voa/02/voa_0258.coref'
p198
aS'ontonotes-release-5.0/data/files/data/english/annotations/bn/voa/00/voa_0039.coref'
p199
aS'ontonotes-release-5.0/data/files/data/english/annotations/bn/cnn/00/cnn_0039.coref'
p200
aS'ontonotes-release-5.0/data/files/data/english/annotations/bn/cnn/03/cnn_0376.coref'
p201
aS'ontonotes-release-5.0/data/files/data/english/annotations/bn/cnn/02/cnn_0262.coref'
p202
aS'ontonotes-release-5.0/data/files/data/english/annotations/bn/voa/02/voa_0239.coref'
p203
aS'ontonotes-release-5.0/data/files/data/english/annotations/bn/cnn/04/cnn_0421.coref'
p204
aS'ontonotes-release-5.0/data/files/data/english/annotations/bn/pri/00/pri_0080.coref'
p205
aS'ontonotes-release-5.0/data/files/data/english/annotations/bn/pri/00/pri_0072.coref'
p206
aS'ontonotes-release-5.0/data/files/data/english/annotations/bn/cnn/03/cnn_0356.coref'
p207
aS'ontonotes-release-5.0/data/files/data/english/annotations/bn/voa/01/voa_0132.coref'
p208
aS'ontonotes-release-5.0/data/files/data/english/annotations/bn/pri/00/pri_0001.coref'
p209
aS'ontonotes-release-5.0/data/files/data/english/annotations/bn/voa/01/voa_0121.coref'
p210
aS'ontonotes-release-5.0/data/files/data/english/annotations/bn/cnn/02/cnn_0236.coref'
p211
aS'ontonotes-release-5.0/data/files/data/english/annotations/bn/cnn/01/cnn_0117.coref'
p212
aS'ontonotes-release-5.0/data/files/data/english/annotations/bn/abc/00/abc_0022.coref'
p213
aS'ontonotes-release-5.0/data/files/data/english/annotations/bn/voa/00/voa_0036.coref'
p214
aS'ontonotes-release-5.0/data/files/data/english/annotations/bn/cnn/04/cnn_0410.coref'
p215
aS'ontonotes-release-5.0/data/files/data/english/annotations/bn/cnn/02/cnn_0297.coref'
p216
aS'ontonotes-release-5.0/data/files/data/english/annotations/bn/cnn/04/cnn_0426.coref'
p217
aS'ontonotes-release-5.0/data/files/data/english/annotations/bn/voa/00/voa_0066.coref'
p218
aS'ontonotes-release-5.0/data/files/data/english/annotations/bn/voa/01/voa_0102.coref'
p219
aS'ontonotes-release-5.0/data/files/data/english/annotations/bn/pri/00/pri_0048.coref'
p220
aS'ontonotes-release-5.0/data/files/data/english/annotations/bn/pri/00/pri_0064.coref'
p221
aS'ontonotes-release-5.0/data/files/data/english/annotations/bn/cnn/02/cnn_0252.coref'
p222
aS'ontonotes-release-5.0/data/files/data/english/annotations/bn/cnn/03/cnn_0358.coref'
p223
aS'ontonotes-release-5.0/data/files/data/english/annotations/bn/voa/02/voa_0252.coref'
p224
aS'ontonotes-release-5.0/data/files/data/english/annotations/bn/cnn/01/cnn_0113.coref'
p225
aS'ontonotes-release-5.0/data/files/data/english/annotations/bn/cnn/03/cnn_0389.coref'
p226
aS'ontonotes-release-5.0/data/files/data/english/annotations/bn/nbc/00/nbc_0014.coref'
p227
aS'ontonotes-release-5.0/data/files/data/english/annotations/bn/cnn/00/cnn_0010.coref'
p228
aS'ontonotes-release-5.0/data/files/data/english/annotations/bn/cnn/01/cnn_0160.coref'
p229
aS'ontonotes-release-5.0/data/files/data/english/annotations/bn/cnn/01/cnn_0189.coref'
p230
aS'ontonotes-release-5.0/data/files/data/english/annotations/bn/cnn/02/cnn_0234.coref'
p231
aS'ontonotes-release-5.0/data/files/data/english/annotations/bn/cnn/04/cnn_0405.coref'
p232
aS'ontonotes-release-5.0/data/files/data/english/annotations/bn/voa/02/voa_0219.coref'
p233
aS'ontonotes-release-5.0/data/files/data/english/annotations/bn/nbc/00/nbc_0015.coref'
p234
aS'ontonotes-release-5.0/data/files/data/english/annotations/bn/voa/01/voa_0194.coref'
p235
aS'ontonotes-release-5.0/data/files/data/english/annotations/bn/abc/00/abc_0014.coref'
p236
aS'ontonotes-release-5.0/data/files/data/english/annotations/bn/cnn/00/cnn_0082.coref'
p237
aS'ontonotes-release-5.0/data/files/data/english/annotations/bn/mnb/00/mnb_0007.coref'
p238
aS'ontonotes-release-5.0/data/files/data/english/annotations/bn/voa/00/voa_0069.coref'
p239
aS'ontonotes-release-5.0/data/files/data/english/annotations/bn/cnn/03/cnn_0399.coref'
p240
aS'ontonotes-release-5.0/data/files/data/english/annotations/bn/cnn/01/cnn_0154.coref'
p241
aS'ontonotes-release-5.0/data/files/data/english/annotations/bn/abc/00/abc_0030.coref'
p242
aS'ontonotes-release-5.0/data/files/data/english/annotations/bn/cnn/01/cnn_0120.coref'
p243
aS'ontonotes-release-5.0/data/files/data/english/annotations/bn/cnn/03/cnn_0391.coref'
p244
aS'ontonotes-release-5.0/data/files/data/english/annotations/bn/cnn/00/cnn_0012.coref'
p245
aS'ontonotes-release-5.0/data/files/data/english/annotations/bn/voa/00/voa_0002.coref'
p246
aS'ontonotes-release-5.0/data/files/data/english/annotations/bn/cnn/03/cnn_0357.coref'
p247
aS'ontonotes-release-5.0/data/files/data/english/annotations/bn/cnn/00/cnn_0084.coref'
p248
aS'ontonotes-release-5.0/data/files/data/english/annotations/bn/cnn/01/cnn_0179.coref'
p249
aS'ontonotes-release-5.0/data/files/data/english/annotations/bn/voa/00/voa_0004.coref'
p250
aS'ontonotes-release-5.0/data/files/data/english/annotations/bn/cnn/04/cnn_0428.coref'
p251
aS'ontonotes-release-5.0/data/files/data/english/annotations/bn/cnn/03/cnn_0383.coref'
p252
aS'ontonotes-release-5.0/data/files/data/english/annotations/bn/cnn/03/cnn_0369.coref'
p253
aS'ontonotes-release-5.0/data/files/data/english/annotations/bn/voa/00/voa_0095.coref'
p254
aS'ontonotes-release-5.0/data/files/data/english/annotations/bn/pri/00/pri_0053.coref'
p255
aS'ontonotes-release-5.0/data/files/data/english/annotations/bn/cnn/01/cnn_0109.coref'
p256
aS'ontonotes-release-5.0/data/files/data/english/annotations/bn/voa/02/voa_0248.coref'
p257
aS'ontonotes-release-5.0/data/files/data/english/annotations/bn/pri/00/pri_0014.coref'
p258
aS'ontonotes-release-5.0/data/files/data/english/annotations/bn/nbc/00/nbc_0035.coref'
p259
aS'ontonotes-release-5.0/data/files/data/english/annotations/bn/voa/02/voa_0249.coref'
p260
aS'ontonotes-release-5.0/data/files/data/english/annotations/bn/voa/00/voa_0079.coref'
p261
aS'ontonotes-release-5.0/data/files/data/english/annotations/bn/cnn/02/cnn_0290.coref'
p262
aS'ontonotes-release-5.0/data/files/data/english/annotations/bn/cnn/00/cnn_0036.coref'
p263
aS'ontonotes-release-5.0/data/files/data/english/annotations/bn/abc/00/abc_0037.coref'
p264
aS'ontonotes-release-5.0/data/files/data/english/annotations/bn/voa/02/voa_0208.coref'
p265
aS'ontonotes-release-5.0/data/files/data/english/annotations/bn/cnn/00/cnn_0020.coref'
p266
aS'ontonotes-release-5.0/data/files/data/english/annotations/bn/cnn/00/cnn_0074.coref'
p267
aS'ontonotes-release-5.0/data/files/data/english/annotations/bn/cnn/00/cnn_0003.coref'
p268
aS'ontonotes-release-5.0/data/files/data/english/annotations/bn/voa/00/voa_0030.coref'
p269
aS'ontonotes-release-5.0/data/files/data/english/annotations/bn/voa/01/voa_0146.coref'
p270
aS'ontonotes-release-5.0/data/files/data/english/annotations/bn/pri/00/pri_0088.coref'
p271
aS'ontonotes-release-5.0/data/files/data/english/annotations/bn/cnn/01/cnn_0165.coref'
p272
aS'ontonotes-release-5.0/data/files/data/english/annotations/bn/mnb/00/mnb_0013.coref'
p273
aS'ontonotes-release-5.0/data/files/data/english/annotations/bn/cnn/02/cnn_0214.coref'
p274
aS'ontonotes-release-5.0/data/files/data/english/annotations/bn/cnn/03/cnn_0315.coref'
p275
aS'ontonotes-release-5.0/data/files/data/english/annotations/bn/voa/02/voa_0234.coref'
p276
aS'ontonotes-release-5.0/data/files/data/english/annotations/bn/cnn/02/cnn_0230.coref'
p277
aS'ontonotes-release-5.0/data/files/data/english/annotations/bn/cnn/00/cnn_0042.coref'
p278
aS'ontonotes-release-5.0/data/files/data/english/annotations/bn/voa/01/voa_0135.coref'
p279
aS'ontonotes-release-5.0/data/files/data/english/annotations/bn/pri/00/pri_0076.coref'
p280
aS'ontonotes-release-5.0/data/files/data/english/annotations/bn/cnn/00/cnn_0022.coref'
p281
aS'ontonotes-release-5.0/data/files/data/english/annotations/bn/cnn/02/cnn_0229.coref'
p282
aS'ontonotes-release-5.0/data/files/data/english/annotations/bn/voa/01/voa_0152.coref'
p283
aS'ontonotes-release-5.0/data/files/data/english/annotations/bn/voa/01/voa_0100.coref'
p284
aS'ontonotes-release-5.0/data/files/data/english/annotations/bn/voa/02/voa_0261.coref'
p285
aS'ontonotes-release-5.0/data/files/data/english/annotations/bn/cnn/01/cnn_0153.coref'
p286
aS'ontonotes-release-5.0/data/files/data/english/annotations/bn/abc/00/abc_0056.coref'
p287
aS'ontonotes-release-5.0/data/files/data/english/annotations/bn/nbc/00/nbc_0036.coref'
p288
aS'ontonotes-release-5.0/data/files/data/english/annotations/bn/voa/01/voa_0150.coref'
p289
aS'ontonotes-release-5.0/data/files/data/english/annotations/bn/pri/01/pri_0104.coref'
p290
aS'ontonotes-release-5.0/data/files/data/english/annotations/bn/voa/00/voa_0032.coref'
p291
aS'ontonotes-release-5.0/data/files/data/english/annotations/bn/cnn/00/cnn_0061.coref'
p292
aS'ontonotes-release-5.0/data/files/data/english/annotations/bn/pri/00/pri_0039.coref'
p293
aS'ontonotes-release-5.0/data/files/data/english/annotations/bn/nbc/00/nbc_0022.coref'
p294
aS'ontonotes-release-5.0/data/files/data/english/annotations/bn/pri/00/pri_0028.coref'
p295
aS'ontonotes-release-5.0/data/files/data/english/annotations/bn/cnn/02/cnn_0265.coref'
p296
aS'ontonotes-release-5.0/data/files/data/english/annotations/bn/voa/00/voa_0007.coref'
p297
aS'ontonotes-release-5.0/data/files/data/english/annotations/bn/cnn/02/cnn_0289.coref'
p298
aS'ontonotes-release-5.0/data/files/data/english/annotations/bn/cnn/01/cnn_0190.coref'
p299
aS'ontonotes-release-5.0/data/files/data/english/annotations/bn/voa/02/voa_0200.coref'
p300
aS'ontonotes-release-5.0/data/files/data/english/annotations/bn/voa/02/voa_0222.coref'
p301
aS'ontonotes-release-5.0/data/files/data/english/annotations/bn/cnn/04/cnn_0422.coref'
p302
aS'ontonotes-release-5.0/data/files/data/english/annotations/bn/cnn/02/cnn_0251.coref'
p303
aS'ontonotes-release-5.0/data/files/data/english/annotations/bn/pri/00/pri_0058.coref'
p304
aS'ontonotes-release-5.0/data/files/data/english/annotations/bn/pri/01/pri_0109.coref'
p305
aS'ontonotes-release-5.0/data/files/data/english/annotations/bn/pri/00/pri_0045.coref'
p306
aS'ontonotes-release-5.0/data/files/data/english/annotations/bn/voa/01/voa_0189.coref'
p307
aS'ontonotes-release-5.0/data/files/data/english/annotations/bn/pri/00/pri_0077.coref'
p308
aS'ontonotes-release-5.0/data/files/data/english/annotations/bn/voa/02/voa_0260.coref'
p309
aS'ontonotes-release-5.0/data/files/data/english/annotations/bn/pri/00/pri_0093.coref'
p310
aS'ontonotes-release-5.0/data/files/data/english/annotations/bn/cnn/03/cnn_0303.coref'
p311
aS'ontonotes-release-5.0/data/files/data/english/annotations/bn/cnn/03/cnn_0359.coref'
p312
aS'ontonotes-release-5.0/data/files/data/english/annotations/bn/mnb/00/mnb_0008.coref'
p313
aS'ontonotes-release-5.0/data/files/data/english/annotations/bn/pri/01/pri_0107.coref'
p314
aS'ontonotes-release-5.0/data/files/data/english/annotations/bn/voa/02/voa_0238.coref'
p315
aS'ontonotes-release-5.0/data/files/data/english/annotations/bn/cnn/02/cnn_0205.coref'
p316
aS'ontonotes-release-5.0/data/files/data/english/annotations/bn/cnn/01/cnn_0143.coref'
p317
aS'ontonotes-release-5.0/data/files/data/english/annotations/bn/cnn/03/cnn_0329.coref'
p318
aS'ontonotes-release-5.0/data/files/data/english/annotations/bn/cnn/00/cnn_0034.coref'
p319
aS'ontonotes-release-5.0/data/files/data/english/annotations/bn/pri/00/pri_0021.coref'
p320
aS'ontonotes-release-5.0/data/files/data/english/annotations/bn/cnn/02/cnn_0227.coref'
p321
aS'ontonotes-release-5.0/data/files/data/english/annotations/bn/voa/02/voa_0221.coref'
p322
aS'ontonotes-release-5.0/data/files/data/english/annotations/bn/voa/00/voa_0057.coref'
p323
aS'ontonotes-release-5.0/data/files/data/english/annotations/bn/cnn/03/cnn_0379.coref'
p324
aS'ontonotes-release-5.0/data/files/data/english/annotations/bn/pri/00/pri_0046.coref'
p325
aS'ontonotes-release-5.0/data/files/data/english/annotations/bn/nbc/00/nbc_0038.coref'
p326
aS'ontonotes-release-5.0/data/files/data/english/annotations/bn/pri/00/pri_0004.coref'
p327
aS'ontonotes-release-5.0/data/files/data/english/annotations/bn/cnn/03/cnn_0326.coref'
p328
aS'ontonotes-release-5.0/data/files/data/english/annotations/bn/cnn/02/cnn_0204.coref'
p329
aS'ontonotes-release-5.0/data/files/data/english/annotations/bn/voa/02/voa_0256.coref'
p330
aS'ontonotes-release-5.0/data/files/data/english/annotations/bn/cnn/03/cnn_0344.coref'
p331
aS'ontonotes-release-5.0/data/files/data/english/annotations/bn/cnn/01/cnn_0186.coref'
p332
aS'ontonotes-release-5.0/data/files/data/english/annotations/bn/cnn/03/cnn_0304.coref'
p333
aS'ontonotes-release-5.0/data/files/data/english/annotations/bn/cnn/04/cnn_0408.coref'
p334
aS'ontonotes-release-5.0/data/files/data/english/annotations/bn/cnn/02/cnn_0256.coref'
p335
aS'ontonotes-release-5.0/data/files/data/english/annotations/bn/abc/00/abc_0053.coref'
p336
aS'ontonotes-release-5.0/data/files/data/english/annotations/bn/cnn/04/cnn_0429.coref'
p337
aS'ontonotes-release-5.0/data/files/data/english/annotations/bn/cnn/02/cnn_0238.coref'
p338
aS'ontonotes-release-5.0/data/files/data/english/annotations/bn/cnn/02/cnn_0215.coref'
p339
aS'ontonotes-release-5.0/data/files/data/english/annotations/bn/voa/02/voa_0215.coref'
p340
aS'ontonotes-release-5.0/data/files/data/english/annotations/bn/cnn/00/cnn_0027.coref'
p341
aS'ontonotes-release-5.0/data/files/data/english/annotations/bn/cnn/00/cnn_0056.coref'
p342
aS'ontonotes-release-5.0/data/files/data/english/annotations/bn/voa/00/voa_0055.coref'
p343
aS'ontonotes-release-5.0/data/files/data/english/annotations/bn/abc/00/abc_0003.coref'
p344
aS'ontonotes-release-5.0/data/files/data/english/annotations/bn/cnn/04/cnn_0420.coref'
p345
aS'ontonotes-release-5.0/data/files/data/english/annotations/bn/pri/00/pri_0006.coref'
p346
aS'ontonotes-release-5.0/data/files/data/english/annotations/bn/cnn/00/cnn_0029.coref'
p347
aS'ontonotes-release-5.0/data/files/data/english/annotations/bn/cnn/00/cnn_0059.coref'
p348
aS'ontonotes-release-5.0/data/files/data/english/annotations/bn/voa/01/voa_0156.coref'
p349
aS'ontonotes-release-5.0/data/files/data/english/annotations/bn/abc/00/abc_0006.coref'
p350
aS'ontonotes-release-5.0/data/files/data/english/annotations/bn/cnn/02/cnn_0206.coref'
p351
aS'ontonotes-release-5.0/data/files/data/english/annotations/bn/pri/00/pri_0037.coref'
p352
aS'ontonotes-release-5.0/data/files/data/english/annotations/bn/nbc/00/nbc_0008.coref'
p353
aS'ontonotes-release-5.0/data/files/data/english/annotations/bn/cnn/00/cnn_0090.coref'
p354
aS'ontonotes-release-5.0/data/files/data/english/annotations/bn/pri/00/pri_0009.coref'
p355
aS'ontonotes-release-5.0/data/files/data/english/annotations/bn/abc/00/abc_0010.coref'
p356
aS'ontonotes-release-5.0/data/files/data/english/annotations/bn/voa/01/voa_0193.coref'
p357
aS'ontonotes-release-5.0/data/files/data/english/annotations/bn/voa/00/voa_0040.coref'
p358
aS'ontonotes-release-5.0/data/files/data/english/annotations/bn/cnn/00/cnn_0045.coref'
p359
aS'ontonotes-release-5.0/data/files/data/english/annotations/bn/cnn/03/cnn_0316.coref'
p360
aS'ontonotes-release-5.0/data/files/data/english/annotations/bn/voa/00/voa_0052.coref'
p361
aS'ontonotes-release-5.0/data/files/data/english/annotations/bn/voa/00/voa_0028.coref'
p362
aS'ontonotes-release-5.0/data/files/data/english/annotations/bn/voa/01/voa_0185.coref'
p363
aS'ontonotes-release-5.0/data/files/data/english/annotations/bn/voa/01/voa_0154.coref'
p364
aS'ontonotes-release-5.0/data/files/data/english/annotations/bn/abc/00/abc_0054.coref'
p365
aS'ontonotes-release-5.0/data/files/data/english/annotations/bn/voa/02/voa_0233.coref'
p366
aS'ontonotes-release-5.0/data/files/data/english/annotations/bn/voa/00/voa_0008.coref'
p367
aS'ontonotes-release-5.0/data/files/data/english/annotations/bn/cnn/03/cnn_0346.coref'
p368
aS'ontonotes-release-5.0/data/files/data/english/annotations/bn/cnn/00/cnn_0080.coref'
p369
aS'ontonotes-release-5.0/data/files/data/english/annotations/bn/abc/00/abc_0063.coref'
p370
aS'ontonotes-release-5.0/data/files/data/english/annotations/bn/cnn/02/cnn_0285.coref'
p371
aS'ontonotes-release-5.0/data/files/data/english/annotations/bn/mnb/00/mnb_0006.coref'
p372
aS'ontonotes-release-5.0/data/files/data/english/annotations/bn/voa/02/voa_0203.coref'
p373
aS'ontonotes-release-5.0/data/files/data/english/annotations/bn/pri/00/pri_0032.coref'
p374
aS'ontonotes-release-5.0/data/files/data/english/annotations/bn/pri/00/pri_0008.coref'
p375
aS'ontonotes-release-5.0/data/files/data/english/annotations/bn/cnn/02/cnn_0298.coref'
p376
aS'ontonotes-release-5.0/data/files/data/english/annotations/bn/cnn/00/cnn_0021.coref'
p377
aS'ontonotes-release-5.0/data/files/data/english/annotations/bn/pri/00/pri_0038.coref'
p378
aS'ontonotes-release-5.0/data/files/data/english/annotations/bn/abc/00/abc_0021.coref'
p379
aS'ontonotes-release-5.0/data/files/data/english/annotations/bn/voa/01/voa_0117.coref'
p380
aS'ontonotes-release-5.0/data/files/data/english/annotations/bn/cnn/01/cnn_0118.coref'
p381
aS'ontonotes-release-5.0/data/files/data/english/annotations/bn/voa/00/voa_0015.coref'
p382
aS'ontonotes-release-5.0/data/files/data/english/annotations/bn/cnn/00/cnn_0033.coref'
p383
aS'ontonotes-release-5.0/data/files/data/english/annotations/bn/cnn/03/cnn_0396.coref'
p384
aS'ontonotes-release-5.0/data/files/data/english/annotations/bn/pri/00/pri_0073.coref'
p385
aS'ontonotes-release-5.0/data/files/data/english/annotations/bn/cnn/01/cnn_0116.coref'
p386
aS'ontonotes-release-5.0/data/files/data/english/annotations/bn/cnn/01/cnn_0191.coref'
p387
aS'ontonotes-release-5.0/data/files/data/english/annotations/bn/pri/00/pri_0075.coref'
p388
aS'ontonotes-release-5.0/data/files/data/english/annotations/bn/mnb/00/mnb_0016.coref'
p389
aS'ontonotes-release-5.0/data/files/data/english/annotations/bn/voa/01/voa_0178.coref'
p390
aS'ontonotes-release-5.0/data/files/data/english/annotations/bn/cnn/03/cnn_0390.coref'
p391
aS'ontonotes-release-5.0/data/files/data/english/annotations/bn/cnn/02/cnn_0246.coref'
p392
aS'ontonotes-release-5.0/data/files/data/english/annotations/bn/cnn/03/cnn_0328.coref'
p393
aS'ontonotes-release-5.0/data/files/data/english/annotations/bn/mnb/00/mnb_0003.coref'
p394
aS'ontonotes-release-5.0/data/files/data/english/annotations/bn/voa/01/voa_0112.coref'
p395
aS'ontonotes-release-5.0/data/files/data/english/annotations/bn/nbc/00/nbc_0018.coref'
p396
aS'ontonotes-release-5.0/data/files/data/english/annotations/bn/voa/01/voa_0197.coref'
p397
aS'ontonotes-release-5.0/data/files/data/english/annotations/bn/cnn/03/cnn_0372.coref'
p398
aS'ontonotes-release-5.0/data/files/data/english/annotations/bn/cnn/03/cnn_0378.coref'
p399
aS'ontonotes-release-5.0/data/files/data/english/annotations/bn/cnn/02/cnn_0235.coref'
p400
aS'ontonotes-release-5.0/data/files/data/english/annotations/bn/voa/02/voa_0209.coref'
p401
aS'ontonotes-release-5.0/data/files/data/english/annotations/bn/pri/00/pri_0027.coref'
p402
aS'ontonotes-release-5.0/data/files/data/english/annotations/bn/cnn/01/cnn_0146.coref'
p403
aS'ontonotes-release-5.0/data/files/data/english/annotations/bn/abc/00/abc_0035.coref'
p404
aS'ontonotes-release-5.0/data/files/data/english/annotations/bn/cnn/00/cnn_0067.coref'
p405
aS'ontonotes-release-5.0/data/files/data/english/annotations/bn/cnn/01/cnn_0158.coref'
p406
aS'ontonotes-release-5.0/data/files/data/english/annotations/bn/pri/00/pri_0091.coref'
p407
aS'ontonotes-release-5.0/data/files/data/english/annotations/bn/pri/00/pri_0098.coref'
p408
aS'ontonotes-release-5.0/data/files/data/english/annotations/bn/abc/00/abc_0045.coref'
p409
aS'ontonotes-release-5.0/data/files/data/english/annotations/bn/voa/02/voa_0204.coref'
p410
aS'ontonotes-release-5.0/data/files/data/english/annotations/bn/cnn/00/cnn_0081.coref'
p411
aS'ontonotes-release-5.0/data/files/data/english/annotations/bn/nbc/00/nbc_0003.coref'
p412
aS'ontonotes-release-5.0/data/files/data/english/annotations/bn/voa/02/voa_0229.coref'
p413
aS'ontonotes-release-5.0/data/files/data/english/annotations/bn/pri/00/pri_0055.coref'
p414
aS'ontonotes-release-5.0/data/files/data/english/annotations/bn/cnn/00/cnn_0086.coref'
p415
aS'ontonotes-release-5.0/data/files/data/english/annotations/bn/cnn/01/cnn_0197.coref'
p416
aS'ontonotes-release-5.0/data/files/data/english/annotations/bn/voa/00/voa_0065.coref'
p417
aS'ontonotes-release-5.0/data/files/data/english/annotations/bn/cnn/02/cnn_0240.coref'
p418
aS'ontonotes-release-5.0/data/files/data/english/annotations/bn/pri/01/pri_0103.coref'
p419
aS'ontonotes-release-5.0/data/files/data/english/annotations/bn/cnn/01/cnn_0157.coref'
p420
aS'ontonotes-release-5.0/data/files/data/english/annotations/bn/abc/00/abc_0017.coref'
p421
aS'ontonotes-release-5.0/data/files/data/english/annotations/bn/voa/00/voa_0024.coref'
p422
aS'ontonotes-release-5.0/data/files/data/english/annotations/bn/cnn/01/cnn_0147.coref'
p423
aS'ontonotes-release-5.0/data/files/data/english/annotations/bn/pri/00/pri_0005.coref'
p424
aS'ontonotes-release-5.0/data/files/data/english/annotations/bn/cnn/02/cnn_0250.coref'
p425
aS'ontonotes-release-5.0/data/files/data/english/annotations/bn/cnn/00/cnn_0013.coref'
p426
aS'ontonotes-release-5.0/data/files/data/english/annotations/bn/cnn/04/cnn_0403.coref'
p427
aS'ontonotes-release-5.0/data/files/data/english/annotations/bn/nbc/00/nbc_0016.coref'
p428
aS'ontonotes-release-5.0/data/files/data/english/annotations/bn/pri/00/pri_0016.coref'
p429
aS'ontonotes-release-5.0/data/files/data/english/annotations/bn/mnb/00/mnb_0021.coref'
p430
aS'ontonotes-release-5.0/data/files/data/english/annotations/bn/cnn/03/cnn_0312.coref'
p431
aS'ontonotes-release-5.0/data/files/data/english/annotations/bn/cnn/04/cnn_0418.coref'
p432
aS'ontonotes-release-5.0/data/files/data/english/annotations/bn/voa/01/voa_0161.coref'
p433
aS'ontonotes-release-5.0/data/files/data/english/annotations/bn/mnb/00/mnb_0015.coref'
p434
aS'ontonotes-release-5.0/data/files/data/english/annotations/bn/voa/01/voa_0116.coref'
p435
aS'ontonotes-release-5.0/data/files/data/english/annotations/bn/abc/00/abc_0068.coref'
p436
aS'ontonotes-release-5.0/data/files/data/english/annotations/bn/pri/00/pri_0015.coref'
p437
aS'ontonotes-release-5.0/data/files/data/english/annotations/bn/cnn/00/cnn_0046.coref'
p438
aS'ontonotes-release-5.0/data/files/data/english/annotations/bn/voa/00/voa_0051.coref'
p439
aS'ontonotes-release-5.0/data/files/data/english/annotations/bn/cnn/03/cnn_0345.coref'
p440
aS'ontonotes-release-5.0/data/files/data/english/annotations/bn/cnn/02/cnn_0217.coref'
p441
aS'ontonotes-release-5.0/data/files/data/english/annotations/bn/voa/01/voa_0125.coref'
p442
aS'ontonotes-release-5.0/data/files/data/english/annotations/bn/pri/01/pri_0105.coref'
p443
aS'ontonotes-release-5.0/data/files/data/english/annotations/bn/abc/00/abc_0001.coref'
p444
aS'ontonotes-release-5.0/data/files/data/english/annotations/bn/cnn/01/cnn_0121.coref'
p445
aS'ontonotes-release-5.0/data/files/data/english/annotations/bn/voa/02/voa_0237.coref'
p446
aS'ontonotes-release-5.0/data/files/data/english/annotations/bn/voa/02/voa_0220.coref'
p447
aS'ontonotes-release-5.0/data/files/data/english/annotations/bn/cnn/04/cnn_0419.coref'
p448
aS'ontonotes-release-5.0/data/files/data/english/annotations/bn/voa/02/voa_0213.coref'
p449
aS'ontonotes-release-5.0/data/files/data/english/annotations/bn/cnn/01/cnn_0170.coref'
p450
aS'ontonotes-release-5.0/data/files/data/english/annotations/bn/cnn/00/cnn_0062.coref'
p451
aS'ontonotes-release-5.0/data/files/data/english/annotations/bn/voa/01/voa_0173.coref'
p452
aS'ontonotes-release-5.0/data/files/data/english/annotations/bn/cnn/02/cnn_0257.coref'
p453
aS'ontonotes-release-5.0/data/files/data/english/annotations/bn/cnn/04/cnn_0414.coref'
p454
aS'ontonotes-release-5.0/data/files/data/english/annotations/bn/voa/01/voa_0134.coref'
p455
aS'ontonotes-release-5.0/data/files/data/english/annotations/bn/cnn/01/cnn_0115.coref'
p456
aS'ontonotes-release-5.0/data/files/data/english/annotations/bn/cnn/01/cnn_0167.coref'
p457
aS'ontonotes-release-5.0/data/files/data/english/annotations/bn/nbc/00/nbc_0011.coref'
p458
aS'ontonotes-release-5.0/data/files/data/english/annotations/bn/voa/01/voa_0153.coref'
p459
aS'ontonotes-release-5.0/data/files/data/english/annotations/bn/voa/00/voa_0073.coref'
p460
aS'ontonotes-release-5.0/data/files/data/english/annotations/bn/voa/00/voa_0006.coref'
p461
aS'ontonotes-release-5.0/data/files/data/english/annotations/bn/pri/00/pri_0050.coref'
p462
aS'ontonotes-release-5.0/data/files/data/english/annotations/bn/voa/02/voa_0201.coref'
p463
aS'ontonotes-release-5.0/data/files/data/english/annotations/bn/voa/00/voa_0043.coref'
p464
aS'ontonotes-release-5.0/data/files/data/english/annotations/bn/cnn/00/cnn_0009.coref'
p465
aS'ontonotes-release-5.0/data/files/data/english/annotations/bn/cnn/02/cnn_0216.coref'
p466
aS'ontonotes-release-5.0/data/files/data/english/annotations/bn/cnn/03/cnn_0332.coref'
p467
aS'ontonotes-release-5.0/data/files/data/english/annotations/bn/cnn/01/cnn_0129.coref'
p468
aS'ontonotes-release-5.0/data/files/data/english/annotations/bn/cnn/03/cnn_0385.coref'
p469
aS'ontonotes-release-5.0/data/files/data/english/annotations/bn/cnn/00/cnn_0091.coref'
p470
aS'ontonotes-release-5.0/data/files/data/english/annotations/bn/cnn/00/cnn_0040.coref'
p471
aS'ontonotes-release-5.0/data/files/data/english/annotations/bn/pri/00/pri_0051.coref'
p472
aS'ontonotes-release-5.0/data/files/data/english/annotations/bn/cnn/02/cnn_0259.coref'
p473
aS'ontonotes-release-5.0/data/files/data/english/annotations/bn/nbc/00/nbc_0009.coref'
p474
aS'ontonotes-release-5.0/data/files/data/english/annotations/bn/cnn/01/cnn_0183.coref'
p475
aS'ontonotes-release-5.0/data/files/data/english/annotations/bn/abc/00/abc_0032.coref'
p476
aS'ontonotes-release-5.0/data/files/data/english/annotations/bn/nbc/00/nbc_0023.coref'
p477
aS'ontonotes-release-5.0/data/files/data/english/annotations/bn/voa/02/voa_0254.coref'
p478
aS'ontonotes-release-5.0/data/files/data/english/annotations/bn/voa/01/voa_0129.coref'
p479
aS'ontonotes-release-5.0/data/files/data/english/annotations/bn/voa/02/voa_0244.coref'
p480
aS'ontonotes-release-5.0/data/files/data/english/annotations/bn/voa/00/voa_0033.coref'
p481
aS'ontonotes-release-5.0/data/files/data/english/annotations/bn/pri/00/pri_0084.coref'
p482
aS'ontonotes-release-5.0/data/files/data/english/annotations/bn/cnn/00/cnn_0026.coref'
p483
aS'ontonotes-release-5.0/data/files/data/english/annotations/bn/cnn/00/cnn_0076.coref'
p484
aS'ontonotes-release-5.0/data/files/data/english/annotations/bn/voa/01/voa_0128.coref'
p485
aS'ontonotes-release-5.0/data/files/data/english/annotations/bn/voa/01/voa_0115.coref'
p486
aS'ontonotes-release-5.0/data/files/data/english/annotations/bn/voa/01/voa_0111.coref'
p487
aS'ontonotes-release-5.0/data/files/data/english/annotations/bn/abc/00/abc_0028.coref'
p488
aS'ontonotes-release-5.0/data/files/data/english/annotations/bn/cnn/00/cnn_0052.coref'
p489
aS'ontonotes-release-5.0/data/files/data/english/annotations/bn/voa/01/voa_0184.coref'
p490
aS'ontonotes-release-5.0/data/files/data/english/annotations/bn/voa/02/voa_0211.coref'
p491
aS'ontonotes-release-5.0/data/files/data/english/annotations/bn/cnn/02/cnn_0286.coref'
p492
aS'ontonotes-release-5.0/data/files/data/english/annotations/bn/cnn/02/cnn_0213.coref'
p493
aS'ontonotes-release-5.0/data/files/data/english/annotations/bn/cnn/04/cnn_0404.coref'
p494
aS'ontonotes-release-5.0/data/files/data/english/annotations/bn/cnn/01/cnn_0125.coref'
p495
aS'ontonotes-release-5.0/data/files/data/english/annotations/bn/voa/02/voa_0245.coref'
p496
aS'ontonotes-release-5.0/data/files/data/english/annotations/bn/cnn/02/cnn_0247.coref'
p497
aS'ontonotes-release-5.0/data/files/data/english/annotations/bn/voa/00/voa_0086.coref'
p498
aS'ontonotes-release-5.0/data/files/data/english/annotations/bn/voa/01/voa_0118.coref'
p499
aS'ontonotes-release-5.0/data/files/data/english/annotations/bn/cnn/01/cnn_0138.coref'
p500
aS'ontonotes-release-5.0/data/files/data/english/annotations/bn/cnn/01/cnn_0173.coref'
p501
aS'ontonotes-release-5.0/data/files/data/english/annotations/bn/voa/01/voa_0106.coref'
p502
aS'ontonotes-release-5.0/data/files/data/english/annotations/bn/voa/02/voa_0217.coref'
p503
aS'ontonotes-release-5.0/data/files/data/english/annotations/bn/cnn/00/cnn_0028.coref'
p504
aS'ontonotes-release-5.0/data/files/data/english/annotations/bn/cnn/01/cnn_0159.coref'
p505
aS'ontonotes-release-5.0/data/files/data/english/annotations/bn/cnn/01/cnn_0176.coref'
p506
aS'ontonotes-release-5.0/data/files/data/english/annotations/bn/cnn/02/cnn_0207.coref'
p507
aS'ontonotes-release-5.0/data/files/data/english/annotations/bn/cnn/00/cnn_0031.coref'
p508
aS'ontonotes-release-5.0/data/files/data/english/annotations/bn/voa/01/voa_0141.coref'
p509
aS'ontonotes-release-5.0/data/files/data/english/annotations/bn/cnn/03/cnn_0371.coref'
p510
aS'ontonotes-release-5.0/data/files/data/english/annotations/bn/voa/00/voa_0087.coref'
p511
aS'ontonotes-release-5.0/data/files/data/english/annotations/bn/nbc/00/nbc_0021.coref'
p512
aS'ontonotes-release-5.0/data/files/data/english/annotations/bn/voa/02/voa_0231.coref'
p513
aS'ontonotes-release-5.0/data/files/data/english/annotations/bn/voa/00/voa_0088.coref'
p514
aS'ontonotes-release-5.0/data/files/data/english/annotations/bn/cnn/01/cnn_0103.coref'
p515
aS'ontonotes-release-5.0/data/files/data/english/annotations/bn/cnn/04/cnn_0406.coref'
p516
aS'ontonotes-release-5.0/data/files/data/english/annotations/bn/cnn/02/cnn_0264.coref'
p517
aS'ontonotes-release-5.0/data/files/data/english/annotations/bn/cnn/01/cnn_0139.coref'
p518
aS'ontonotes-release-5.0/data/files/data/english/annotations/bn/voa/00/voa_0076.coref'
p519
aS'ontonotes-release-5.0/data/files/data/english/annotations/bn/voa/01/voa_0143.coref'
p520
aS'ontonotes-release-5.0/data/files/data/english/annotations/bn/cnn/02/cnn_0202.coref'
p521
aS'ontonotes-release-5.0/data/files/data/english/annotations/bn/cnn/02/cnn_0233.coref'
p522
aS'ontonotes-release-5.0/data/files/data/english/annotations/bn/cnn/02/cnn_0210.coref'
p523
aS'ontonotes-release-5.0/data/files/data/english/annotations/bn/voa/01/voa_0174.coref'
p524
aS'ontonotes-release-5.0/data/files/data/english/annotations/bn/cnn/00/cnn_0063.coref'
p525
aS'ontonotes-release-5.0/data/files/data/english/annotations/bn/cnn/01/cnn_0107.coref'
p526
aS'ontonotes-release-5.0/data/files/data/english/annotations/bn/voa/00/voa_0090.coref'
p527
aS'ontonotes-release-5.0/data/files/data/english/annotations/bn/cnn/03/cnn_0364.coref'
p528
aS'ontonotes-release-5.0/data/files/data/english/annotations/bn/abc/00/abc_0062.coref'
p529
aS'ontonotes-release-5.0/data/files/data/english/annotations/bn/cnn/01/cnn_0145.coref'
p530
aS'ontonotes-release-5.0/data/files/data/english/annotations/bn/voa/00/voa_0094.coref'
p531
aS'ontonotes-release-5.0/data/files/data/english/annotations/bn/pri/00/pri_0018.coref'
p532
aS'ontonotes-release-5.0/data/files/data/english/annotations/bn/cnn/00/cnn_0072.coref'
p533
aS'ontonotes-release-5.0/data/files/data/english/annotations/bn/voa/02/voa_0255.coref'
p534
aS'ontonotes-release-5.0/data/files/data/english/annotations/bn/voa/02/voa_0223.coref'
p535
aS'ontonotes-release-5.0/data/files/data/english/annotations/bn/cnn/01/cnn_0100.coref'
p536
aS'ontonotes-release-5.0/data/files/data/english/annotations/bn/voa/01/voa_0131.coref'
p537
aS'ontonotes-release-5.0/data/files/data/english/annotations/bn/abc/00/abc_0064.coref'
p538
aS'ontonotes-release-5.0/data/files/data/english/annotations/bn/cnn/03/cnn_0300.coref'
p539
aS'ontonotes-release-5.0/data/files/data/english/annotations/bn/cnn/03/cnn_0386.coref'
p540
aS'ontonotes-release-5.0/data/files/data/english/annotations/bn/abc/00/abc_0031.coref'
p541
aS'ontonotes-release-5.0/data/files/data/english/annotations/bn/voa/01/voa_0192.coref'
p542
aS'ontonotes-release-5.0/data/files/data/english/annotations/bn/voa/00/voa_0075.coref'
p543
aS'ontonotes-release-5.0/data/files/data/english/annotations/bn/voa/02/voa_0265.coref'
p544
aS'ontonotes-release-5.0/data/files/data/english/annotations/bn/voa/01/voa_0191.coref'
p545
aS'ontonotes-release-5.0/data/files/data/english/annotations/bn/cnn/00/cnn_0068.coref'
p546
aS'ontonotes-release-5.0/data/files/data/english/annotations/bn/cnn/00/cnn_0019.coref'
p547
aS'ontonotes-release-5.0/data/files/data/english/annotations/bn/cnn/02/cnn_0280.coref'
p548
aS'ontonotes-release-5.0/data/files/data/english/annotations/bn/cnn/03/cnn_0382.coref'
p549
aS'ontonotes-release-5.0/data/files/data/english/annotations/bn/cnn/01/cnn_0180.coref'
p550
aS'ontonotes-release-5.0/data/files/data/english/annotations/bn/nbc/00/nbc_0012.coref'
p551
aS'ontonotes-release-5.0/data/files/data/english/annotations/bn/cnn/01/cnn_0164.coref'
p552
aS'ontonotes-release-5.0/data/files/data/english/annotations/bn/cnn/02/cnn_0273.coref'
p553
aS'ontonotes-release-5.0/data/files/data/english/annotations/bn/cnn/03/cnn_0338.coref'
p554
aS'ontonotes-release-5.0/data/files/data/english/annotations/bn/cnn/03/cnn_0340.coref'
p555
aS'ontonotes-release-5.0/data/files/data/english/annotations/bn/cnn/03/cnn_0318.coref'
p556
aS'ontonotes-release-5.0/data/files/data/english/annotations/bn/cnn/02/cnn_0261.coref'
p557
aS'ontonotes-release-5.0/data/files/data/english/annotations/bn/cnn/01/cnn_0155.coref'
p558
aS'ontonotes-release-5.0/data/files/data/english/annotations/bn/pri/00/pri_0069.coref'
p559
aS'ontonotes-release-5.0/data/files/data/english/annotations/bn/abc/00/abc_0040.coref'
p560
aS'ontonotes-release-5.0/data/files/data/english/annotations/bn/cnn/03/cnn_0334.coref'
p561
aS'ontonotes-release-5.0/data/files/data/english/annotations/bn/cnn/01/cnn_0132.coref'
p562
aS'ontonotes-release-5.0/data/files/data/english/annotations/bn/cnn/01/cnn_0102.coref'
p563
aS'ontonotes-release-5.0/data/files/data/english/annotations/bn/cnn/00/cnn_0051.coref'
p564
aS'ontonotes-release-5.0/data/files/data/english/annotations/bn/abc/00/abc_0023.coref'
p565
aS'ontonotes-release-5.0/data/files/data/english/annotations/bn/cnn/00/cnn_0073.coref'
p566
aS'ontonotes-release-5.0/data/files/data/english/annotations/bn/cnn/02/cnn_0270.coref'
p567
aS'ontonotes-release-5.0/data/files/data/english/annotations/bn/cnn/04/cnn_0424.coref'
p568
aS'ontonotes-release-5.0/data/files/data/english/annotations/bn/voa/00/voa_0029.coref'
p569
aS'ontonotes-release-5.0/data/files/data/english/annotations/bn/cnn/02/cnn_0221.coref'
p570
aS'ontonotes-release-5.0/data/files/data/english/annotations/bn/pri/01/pri_0106.coref'
p571
aS'ontonotes-release-5.0/data/files/data/english/annotations/bn/pri/00/pri_0092.coref'
p572
aS'ontonotes-release-5.0/data/files/data/english/annotations/bn/abc/00/abc_0066.coref'
p573
aS'ontonotes-release-5.0/data/files/data/english/annotations/bn/pri/00/pri_0090.coref'
p574
aS'ontonotes-release-5.0/data/files/data/english/annotations/bn/cnn/02/cnn_0277.coref'
p575
aS'ontonotes-release-5.0/data/files/data/english/annotations/bn/voa/02/voa_0225.coref'
p576
aS'ontonotes-release-5.0/data/files/data/english/annotations/bn/abc/00/abc_0050.coref'
p577
aS'ontonotes-release-5.0/data/files/data/english/annotations/bn/abc/00/abc_0005.coref'
p578
aS'ontonotes-release-5.0/data/files/data/english/annotations/bn/cnn/02/cnn_0269.coref'
p579
aS'ontonotes-release-5.0/data/files/data/english/annotations/bn/cnn/03/cnn_0348.coref'
p580
aS'ontonotes-release-5.0/data/files/data/english/annotations/bn/cnn/01/cnn_0168.coref'
p581
aS'ontonotes-release-5.0/data/files/data/english/annotations/bn/cnn/02/cnn_0201.coref'
p582
aS'ontonotes-release-5.0/data/files/data/english/annotations/bn/voa/01/voa_0157.coref'
p583
aS'ontonotes-release-5.0/data/files/data/english/annotations/bn/cnn/01/cnn_0137.coref'
p584
aS'ontonotes-release-5.0/data/files/data/english/annotations/bn/cnn/03/cnn_0361.coref'
p585
aS'ontonotes-release-5.0/data/files/data/english/annotations/bn/voa/00/voa_0077.coref'
p586
aS'ontonotes-release-5.0/data/files/data/english/annotations/bn/voa/00/voa_0019.coref'
p587
aS'ontonotes-release-5.0/data/files/data/english/annotations/bn/pri/00/pri_0033.coref'
p588
aS'ontonotes-release-5.0/data/files/data/english/annotations/bn/voa/01/voa_0162.coref'
p589
aS'ontonotes-release-5.0/data/files/data/english/annotations/bn/cnn/01/cnn_0193.coref'
p590
aS'ontonotes-release-5.0/data/files/data/english/annotations/bn/voa/01/voa_0155.coref'
p591
aS'ontonotes-release-5.0/data/files/data/english/annotations/bn/cnn/03/cnn_0320.coref'
p592
aS'ontonotes-release-5.0/data/files/data/english/annotations/bn/pri/00/pri_0078.coref'
p593
aS'ontonotes-release-5.0/data/files/data/english/annotations/bn/voa/00/voa_0005.coref'
p594
aS'ontonotes-release-5.0/data/files/data/english/annotations/bn/voa/02/voa_0253.coref'
p595
aS'ontonotes-release-5.0/data/files/data/english/annotations/bn/cnn/02/cnn_0200.coref'
p596
aS'ontonotes-release-5.0/data/files/data/english/annotations/bn/voa/01/voa_0105.coref'
p597
aS'ontonotes-release-5.0/data/files/data/english/annotations/bn/voa/00/voa_0063.coref'
p598
aS'ontonotes-release-5.0/data/files/data/english/annotations/bn/cnn/03/cnn_0308.coref'
p599
aS'ontonotes-release-5.0/data/files/data/english/annotations/bn/cnn/04/cnn_0430.coref'
p600
aS'ontonotes-release-5.0/data/files/data/english/annotations/bn/voa/00/voa_0096.coref'
p601
aS'ontonotes-release-5.0/data/files/data/english/annotations/bn/mnb/00/mnb_0005.coref'
p602
aS'ontonotes-release-5.0/data/files/data/english/annotations/bn/abc/00/abc_0015.coref'
p603
aS'ontonotes-release-5.0/data/files/data/english/annotations/bn/pri/00/pri_0035.coref'
p604
aS'ontonotes-release-5.0/data/files/data/english/annotations/bn/voa/00/voa_0056.coref'
p605
aS'ontonotes-release-5.0/data/files/data/english/annotations/bn/cnn/00/cnn_0070.coref'
p606
aS'ontonotes-release-5.0/data/files/data/english/annotations/bn/cnn/02/cnn_0243.coref'
p607
aS'ontonotes-release-5.0/data/files/data/english/annotations/bn/voa/00/voa_0013.coref'
p608
aS'ontonotes-release-5.0/data/files/data/english/annotations/bn/cnn/01/cnn_0124.coref'
p609
aS'ontonotes-release-5.0/data/files/data/english/annotations/bn/pri/01/pri_0102.coref'
p610
aS'ontonotes-release-5.0/data/files/data/english/annotations/bn/voa/01/voa_0176.coref'
p611
aS'ontonotes-release-5.0/data/files/data/english/annotations/bn/cnn/03/cnn_0313.coref'
p612
aS'ontonotes-release-5.0/data/files/data/english/annotations/bn/pri/00/pri_0002.coref'
p613
aS'ontonotes-release-5.0/data/files/data/english/annotations/bn/abc/00/abc_0024.coref'
p614
aS'ontonotes-release-5.0/data/files/data/english/annotations/bn/voa/00/voa_0025.coref'
p615
aS'ontonotes-release-5.0/data/files/data/english/annotations/bn/cnn/02/cnn_0275.coref'
p616
aS'ontonotes-release-5.0/data/files/data/english/annotations/bn/voa/01/voa_0199.coref'
p617
aS'ontonotes-release-5.0/data/files/data/english/annotations/bn/cnn/00/cnn_0030.coref'
p618
aS'ontonotes-release-5.0/data/files/data/english/annotations/bn/cnn/03/cnn_0353.coref'
p619
aS'ontonotes-release-5.0/data/files/data/english/annotations/bn/nbc/00/nbc_0028.coref'
p620
aS'ontonotes-release-5.0/data/files/data/english/annotations/bn/cnn/04/cnn_0402.coref'
p621
aS'ontonotes-release-5.0/data/files/data/english/annotations/bn/voa/02/voa_0206.coref'
p622
aS'ontonotes-release-5.0/data/files/data/english/annotations/bn/pri/00/pri_0044.coref'
p623
aS'ontonotes-release-5.0/data/files/data/english/annotations/bn/cnn/00/cnn_0041.coref'
p624
aS'ontonotes-release-5.0/data/files/data/english/annotations/bn/abc/00/abc_0007.coref'
p625
aS'ontonotes-release-5.0/data/files/data/english/annotations/bn/cnn/01/cnn_0169.coref'
p626
aS'ontonotes-release-5.0/data/files/data/english/annotations/bn/cnn/00/cnn_0085.coref'
p627
aS'ontonotes-release-5.0/data/files/data/english/annotations/bn/cnn/04/cnn_0415.coref'
p628
aS'ontonotes-release-5.0/data/files/data/english/annotations/bn/cnn/01/cnn_0171.coref'
p629
aS'ontonotes-release-5.0/data/files/data/english/annotations/bn/voa/01/voa_0198.coref'
p630
aS'ontonotes-release-5.0/data/files/data/english/annotations/bn/voa/02/voa_0230.coref'
p631
aS'ontonotes-release-5.0/data/files/data/english/annotations/bn/voa/01/voa_0187.coref'
p632
aS'ontonotes-release-5.0/data/files/data/english/annotations/bn/cnn/03/cnn_0330.coref'
p633
aS'ontonotes-release-5.0/data/files/data/english/annotations/bn/cnn/04/cnn_0413.coref'
p634
aS'ontonotes-release-5.0/data/files/data/english/annotations/bn/abc/00/abc_0065.coref'
p635
aS'ontonotes-release-5.0/data/files/data/english/annotations/bn/pri/00/pri_0020.coref'
p636
aS'ontonotes-release-5.0/data/files/data/english/annotations/bn/mnb/00/mnb_0009.coref'
p637
aS'ontonotes-release-5.0/data/files/data/english/annotations/bn/cnn/03/cnn_0380.coref'
p638
aS'ontonotes-release-5.0/data/files/data/english/annotations/bn/cnn/00/cnn_0064.coref'
p639
aS'ontonotes-release-5.0/data/files/data/english/annotations/bn/voa/01/voa_0168.coref'
p640
aS'ontonotes-release-5.0/data/files/data/english/annotations/bn/nbc/00/nbc_0006.coref'
p641
aS'ontonotes-release-5.0/data/files/data/english/annotations/bn/voa/00/voa_0084.coref'
p642
aS'ontonotes-release-5.0/data/files/data/english/annotations/bn/cnn/00/cnn_0011.coref'
p643
aS'ontonotes-release-5.0/data/files/data/english/annotations/bn/cnn/04/cnn_0434.coref'
p644
aS'ontonotes-release-5.0/data/files/data/english/annotations/bn/cnn/02/cnn_0203.coref'
p645
aS'ontonotes-release-5.0/data/files/data/english/annotations/bn/cnn/02/cnn_0208.coref'
p646
aS'ontonotes-release-5.0/data/files/data/english/annotations/bn/mnb/00/mnb_0001.coref'
p647
aS'ontonotes-release-5.0/data/files/data/english/annotations/bn/voa/00/voa_0022.coref'
p648
aS'ontonotes-release-5.0/data/files/data/english/annotations/bn/cnn/01/cnn_0161.coref'
p649
aS'ontonotes-release-5.0/data/files/data/english/annotations/bn/cnn/03/cnn_0398.coref'
p650
aS'ontonotes-release-5.0/data/files/data/english/annotations/bn/voa/01/voa_0142.coref'
p651
aS'ontonotes-release-5.0/data/files/data/english/annotations/bn/voa/01/voa_0158.coref'
p652
aS'ontonotes-release-5.0/data/files/data/english/annotations/bn/mnb/00/mnb_0023.coref'
p653
aS'ontonotes-release-5.0/data/files/data/english/annotations/bn/cnn/01/cnn_0156.coref'
p654
aS'ontonotes-release-5.0/data/files/data/english/annotations/bn/cnn/02/cnn_0281.coref'
p655
aS'ontonotes-release-5.0/data/files/data/english/annotations/bn/cnn/01/cnn_0119.coref'
p656
aS'ontonotes-release-5.0/data/files/data/english/annotations/bn/voa/00/voa_0099.coref'
p657
aS'ontonotes-release-5.0/data/files/data/english/annotations/bn/cnn/02/cnn_0249.coref'
p658
aS'ontonotes-release-5.0/data/files/data/english/annotations/bn/cnn/02/cnn_0209.coref'
p659
aS'ontonotes-release-5.0/data/files/data/english/annotations/bn/cnn/03/cnn_0351.coref'
p660
aS'ontonotes-release-5.0/data/files/data/english/annotations/bn/cnn/01/cnn_0126.coref'
p661
aS'ontonotes-release-5.0/data/files/data/english/annotations/bn/voa/01/voa_0180.coref'
p662
aS'ontonotes-release-5.0/data/files/data/english/annotations/bn/cnn/00/cnn_0047.coref'
p663
aS'ontonotes-release-5.0/data/files/data/english/annotations/bn/voa/01/voa_0110.coref'
p664
aS'ontonotes-release-5.0/data/files/data/english/annotations/bn/cnn/03/cnn_0305.coref'
p665
aS'ontonotes-release-5.0/data/files/data/english/annotations/bn/nbc/00/nbc_0030.coref'
p666
aS'ontonotes-release-5.0/data/files/data/english/annotations/bn/cnn/01/cnn_0140.coref'
p667
aS'ontonotes-release-5.0/data/files/data/english/annotations/bn/voa/02/voa_0210.coref'
p668
aS'ontonotes-release-5.0/data/files/data/english/annotations/bn/abc/00/abc_0026.coref'
p669
aS'ontonotes-release-5.0/data/files/data/english/annotations/bn/mnb/00/mnb_0004.coref'
p670
aS'ontonotes-release-5.0/data/files/data/english/annotations/bn/pri/00/pri_0003.coref'
p671
aS'ontonotes-release-5.0/data/files/data/english/annotations/bn/cnn/02/cnn_0220.coref'
p672
aS'ontonotes-release-5.0/data/files/data/english/annotations/bn/cnn/01/cnn_0172.coref'
p673
aS'ontonotes-release-5.0/data/files/data/english/annotations/bn/voa/02/voa_0236.coref'
p674
aS'ontonotes-release-5.0/data/files/data/english/annotations/bn/cnn/00/cnn_0032.coref'
p675
aS'ontonotes-release-5.0/data/files/data/english/annotations/bn/abc/00/abc_0041.coref'
p676
aS'ontonotes-release-5.0/data/files/data/english/annotations/bn/cnn/01/cnn_0122.coref'
p677
aS'ontonotes-release-5.0/data/files/data/english/annotations/bn/voa/01/voa_0126.coref'
p678
aS'ontonotes-release-5.0/data/files/data/english/annotations/bn/cnn/01/cnn_0106.coref'
p679
aS'ontonotes-release-5.0/data/files/data/english/annotations/bn/cnn/02/cnn_0231.coref'
p680
aS'ontonotes-release-5.0/data/files/data/english/annotations/bn/cnn/01/cnn_0166.coref'
p681
aS'ontonotes-release-5.0/data/files/data/english/annotations/bn/cnn/02/cnn_0219.coref'
p682
aS'ontonotes-release-5.0/data/files/data/english/annotations/bn/voa/00/voa_0031.coref'
p683
aS'ontonotes-release-5.0/data/files/data/english/annotations/bn/pri/00/pri_0094.coref'
p684
aS'ontonotes-release-5.0/data/files/data/english/annotations/bn/abc/00/abc_0038.coref'
p685
aS'ontonotes-release-5.0/data/files/data/english/annotations/bn/pri/00/pri_0060.coref'
p686
aS'ontonotes-release-5.0/data/files/data/english/annotations/bn/cnn/00/cnn_0094.coref'
p687
aS'ontonotes-release-5.0/data/files/data/english/annotations/bn/voa/00/voa_0058.coref'
p688
aS'ontonotes-release-5.0/data/files/data/english/annotations/bn/voa/01/voa_0137.coref'
p689
aS'ontonotes-release-5.0/data/files/data/english/annotations/bn/cnn/02/cnn_0260.coref'
p690
aS'ontonotes-release-5.0/data/files/data/english/annotations/bn/voa/00/voa_0050.coref'
p691
aS'ontonotes-release-5.0/data/files/data/english/annotations/bn/cnn/00/cnn_0006.coref'
p692
aS'ontonotes-release-5.0/data/files/data/english/annotations/bn/pri/00/pri_0012.coref'
p693
aS'ontonotes-release-5.0/data/files/data/english/annotations/bn/cnn/03/cnn_0397.coref'
p694
aS'ontonotes-release-5.0/data/files/data/english/annotations/bn/cnn/01/cnn_0163.coref'
p695
aS'ontonotes-release-5.0/data/files/data/english/annotations/bn/voa/02/voa_0216.coref'
p696
aS'ontonotes-release-5.0/data/files/data/english/annotations/bn/pri/00/pri_0068.coref'
p697
aS'ontonotes-release-5.0/data/files/data/english/annotations/bn/cnn/01/cnn_0162.coref'
p698
aS'ontonotes-release-5.0/data/files/data/english/annotations/bn/pri/00/pri_0070.coref'
p699
aS'ontonotes-release-5.0/data/files/data/english/annotations/bn/abc/00/abc_0057.coref'
p700
aS'ontonotes-release-5.0/data/files/data/english/annotations/bn/voa/00/voa_0049.coref'
p701
aS'ontonotes-release-5.0/data/files/data/english/annotations/bn/cnn/03/cnn_0393.coref'
p702
aS'ontonotes-release-5.0/data/files/data/english/annotations/bn/mnb/00/mnb_0018.coref'
p703
aS'ontonotes-release-5.0/data/files/data/english/annotations/bn/cnn/01/cnn_0131.coref'
p704
aS'ontonotes-release-5.0/data/files/data/english/annotations/bn/pri/00/pri_0095.coref'
p705
aS'ontonotes-release-5.0/data/files/data/english/annotations/bn/cnn/04/cnn_0435.coref'
p706
aS'ontonotes-release-5.0/data/files/data/english/annotations/bn/cnn/01/cnn_0104.coref'
p707
aS'ontonotes-release-5.0/data/files/data/english/annotations/bn/cnn/02/cnn_0266.coref'
p708
aS'ontonotes-release-5.0/data/files/data/english/annotations/bn/voa/00/voa_0047.coref'
p709
aS'ontonotes-release-5.0/data/files/data/english/annotations/bn/cnn/01/cnn_0110.coref'
p710
aS'ontonotes-release-5.0/data/files/data/english/annotations/bn/voa/01/voa_0136.coref'
p711
aS'ontonotes-release-5.0/data/files/data/english/annotations/bn/voa/01/voa_0163.coref'
p712
aS'ontonotes-release-5.0/data/files/data/english/annotations/bn/cnn/00/cnn_0002.coref'
p713
aS'ontonotes-release-5.0/data/files/data/english/annotations/bn/mnb/00/mnb_0014.coref'
p714
aS'ontonotes-release-5.0/data/files/data/english/annotations/bn/cnn/01/cnn_0150.coref'
p715
aS'ontonotes-release-5.0/data/files/data/english/annotations/bn/abc/00/abc_0058.coref'
p716
aS'ontonotes-release-5.0/data/files/data/english/annotations/bn/cnn/02/cnn_0241.coref'
p717
aS'ontonotes-release-5.0/data/files/data/english/annotations/bn/pri/01/pri_0101.coref'
p718
aS'ontonotes-release-5.0/data/files/data/english/annotations/bn/cnn/00/cnn_0004.coref'
p719
aS'ontonotes-release-5.0/data/files/data/english/annotations/bn/cnn/00/cnn_0088.coref'
p720
aS'ontonotes-release-5.0/data/files/data/english/annotations/bn/voa/01/voa_0148.coref'
p721
aS'ontonotes-release-5.0/data/files/data/english/annotations/bn/nbc/00/nbc_0001.coref'
p722
aS'ontonotes-release-5.0/data/files/data/english/annotations/bn/cnn/03/cnn_0319.coref'
p723
aS'ontonotes-release-5.0/data/files/data/english/annotations/bn/cnn/01/cnn_0135.coref'
p724
aS'ontonotes-release-5.0/data/files/data/english/annotations/bn/cnn/02/cnn_0296.coref'
p725
aS'ontonotes-release-5.0/data/files/data/english/annotations/bn/voa/02/voa_0241.coref'
p726
aS'ontonotes-release-5.0/data/files/data/english/annotations/bn/voa/01/voa_0140.coref'
p727
aS'ontonotes-release-5.0/data/files/data/english/annotations/bn/mnb/00/mnb_0012.coref'
p728
aS'ontonotes-release-5.0/data/files/data/english/annotations/bn/cnn/04/cnn_0407.coref'
p729
aS'ontonotes-release-5.0/data/files/data/english/annotations/bn/voa/01/voa_0182.coref'
p730
aS'ontonotes-release-5.0/data/files/data/english/annotations/bn/cnn/00/cnn_0089.coref'
p731
aS'ontonotes-release-5.0/data/files/data/english/annotations/bn/cnn/00/cnn_0005.coref'
p732
aS'ontonotes-release-5.0/data/files/data/english/annotations/bn/cnn/00/cnn_0008.coref'
p733
aS'ontonotes-release-5.0/data/files/data/english/annotations/bn/cnn/02/cnn_0272.coref'
p734
aS'ontonotes-release-5.0/data/files/data/english/annotations/bn/voa/00/voa_0003.coref'
p735
aS'ontonotes-release-5.0/data/files/data/english/annotations/bn/cnn/00/cnn_0001.coref'
p736
aS'ontonotes-release-5.0/data/files/data/english/annotations/bn/cnn/02/cnn_0226.coref'
p737
aS'ontonotes-release-5.0/data/files/data/english/annotations/bn/voa/01/voa_0164.coref'
p738
aS'ontonotes-release-5.0/data/files/data/english/annotations/bn/abc/00/abc_0048.coref'
p739
aS'ontonotes-release-5.0/data/files/data/english/annotations/bn/voa/01/voa_0169.coref'
p740
aS'ontonotes-release-5.0/data/files/data/english/annotations/bn/cnn/01/cnn_0192.coref'
p741
aS'ontonotes-release-5.0/data/files/data/english/annotations/bn/voa/02/voa_0262.coref'
p742
aS'ontonotes-release-5.0/data/files/data/english/annotations/bn/mnb/00/mnb_0002.coref'
p743
aS'ontonotes-release-5.0/data/files/data/english/annotations/bn/cnn/03/cnn_0352.coref'
p744
aS'ontonotes-release-5.0/data/files/data/english/annotations/bn/voa/00/voa_0072.coref'
p745
aS'ontonotes-release-5.0/data/files/data/english/annotations/bn/voa/00/voa_0021.coref'
p746
aS'ontonotes-release-5.0/data/files/data/english/annotations/bn/voa/00/voa_0020.coref'
p747
aS'ontonotes-release-5.0/data/files/data/english/annotations/bn/pri/00/pri_0052.coref'
p748
aS'ontonotes-release-5.0/data/files/data/english/annotations/bn/cnn/02/cnn_0274.coref'
p749
aS'ontonotes-release-5.0/data/files/data/english/annotations/bn/nbc/00/nbc_0031.coref'
p750
aS'ontonotes-release-5.0/data/files/data/english/annotations/bn/cnn/00/cnn_0083.coref'
p751
aS'ontonotes-release-5.0/data/files/data/english/annotations/bn/nbc/00/nbc_0017.coref'
p752
aS'ontonotes-release-5.0/data/files/data/english/annotations/bn/pri/00/pri_0024.coref'
p753
aS'ontonotes-release-5.0/data/files/data/english/annotations/bn/nbc/00/nbc_0037.coref'
p754
aS'ontonotes-release-5.0/data/files/data/english/annotations/bn/pri/00/pri_0029.coref'
p755
aS'ontonotes-release-5.0/data/files/data/english/annotations/bn/voa/01/voa_0113.coref'
p756
aS'ontonotes-release-5.0/data/files/data/english/annotations/bn/cnn/01/cnn_0178.coref'
p757
aS'ontonotes-release-5.0/data/files/data/english/annotations/bn/voa/00/voa_0098.coref'
p758
aS'ontonotes-release-5.0/data/files/data/english/annotations/bn/cnn/01/cnn_0198.coref'
p759
aS'ontonotes-release-5.0/data/files/data/english/annotations/bn/cnn/00/cnn_0075.coref'
p760
aS'ontonotes-release-5.0/data/files/data/english/annotations/bn/voa/00/voa_0011.coref'
p761
aS'ontonotes-release-5.0/data/files/data/english/annotations/bn/nbc/00/nbc_0034.coref'
p762
aS'ontonotes-release-5.0/data/files/data/english/annotations/bn/cnn/02/cnn_0253.coref'
p763
aS'ontonotes-release-5.0/data/files/data/english/annotations/bn/cnn/00/cnn_0098.coref'
p764
aS'ontonotes-release-5.0/data/files/data/english/annotations/bn/voa/01/voa_0133.coref'
p765
aS'ontonotes-release-5.0/data/files/data/english/annotations/bn/cnn/00/cnn_0017.coref'
p766
aS'ontonotes-release-5.0/data/files/data/english/annotations/bn/cnn/03/cnn_0373.coref'
p767
aS'ontonotes-release-5.0/data/files/data/english/annotations/bn/cnn/03/cnn_0381.coref'
p768
aS'ontonotes-release-5.0/data/files/data/english/annotations/bn/voa/01/voa_0167.coref'
p769
aS'ontonotes-release-5.0/data/files/data/english/annotations/bn/cnn/04/cnn_0436.coref'
p770
aS'ontonotes-release-5.0/data/files/data/english/annotations/bn/voa/00/voa_0014.coref'
p771
aS'ontonotes-release-5.0/data/files/data/english/annotations/bn/voa/00/voa_0017.coref'
p772
aS'ontonotes-release-5.0/data/files/data/english/annotations/bn/cnn/03/cnn_0355.coref'
p773
aS'ontonotes-release-5.0/data/files/data/english/annotations/bn/abc/00/abc_0020.coref'
p774
aS'ontonotes-release-5.0/data/files/data/english/annotations/bn/pri/01/pri_0110.coref'
p775
aS'ontonotes-release-5.0/data/files/data/english/annotations/bn/pri/00/pri_0007.coref'
p776
aS'ontonotes-release-5.0/data/files/data/english/annotations/bn/voa/02/voa_0257.coref'
p777
aS'ontonotes-release-5.0/data/files/data/english/annotations/bn/cnn/03/cnn_0365.coref'
p778
aS'ontonotes-release-5.0/data/files/data/english/annotations/bn/cnn/00/cnn_0079.coref'
p779
aS'ontonotes-release-5.0/data/files/data/english/annotations/bn/cnn/02/cnn_0242.coref'
p780
aS'ontonotes-release-5.0/data/files/data/english/annotations/bn/pri/01/pri_0108.coref'
p781
aS'ontonotes-release-5.0/data/files/data/english/annotations/bn/voa/02/voa_0264.coref'
p782
aS'ontonotes-release-5.0/data/files/data/english/annotations/bn/abc/00/abc_0059.coref'
p783
aS'ontonotes-release-5.0/data/files/data/english/annotations/bn/cnn/03/cnn_0362.coref'
p784
aS'ontonotes-release-5.0/data/files/data/english/annotations/bn/cnn/00/cnn_0095.coref'
p785
aS'ontonotes-release-5.0/data/files/data/english/annotations/bn/pri/00/pri_0081.coref'
p786
aS'ontonotes-release-5.0/data/files/data/english/annotations/bn/cnn/03/cnn_0317.coref'
p787
aS'ontonotes-release-5.0/data/files/data/english/annotations/bn/nbc/00/nbc_0004.coref'
p788
aS'ontonotes-release-5.0/data/files/data/english/annotations/bn/cnn/03/cnn_0314.coref'
p789
aS'ontonotes-release-5.0/data/files/data/english/annotations/bn/nbc/00/nbc_0005.coref'
p790
aS'ontonotes-release-5.0/data/files/data/english/annotations/bn/voa/00/voa_0093.coref'
p791
aS'ontonotes-release-5.0/data/files/data/english/annotations/bn/cnn/04/cnn_0437.coref'
p792
aS'ontonotes-release-5.0/data/files/data/english/annotations/bn/cnn/03/cnn_0342.coref'
p793
aS'ontonotes-release-5.0/data/files/data/english/annotations/bn/voa/02/voa_0242.coref'
p794
aS'ontonotes-release-5.0/data/files/data/english/annotations/bn/cnn/00/cnn_0065.coref'
p795
aS'ontonotes-release-5.0/data/files/data/english/annotations/bn/cnn/02/cnn_0237.coref'
p796
aS'ontonotes-release-5.0/data/files/data/english/annotations/bn/voa/01/voa_0170.coref'
p797
aS'ontonotes-release-5.0/data/files/data/english/annotations/bn/cnn/03/cnn_0374.coref'
p798
aS'ontonotes-release-5.0/data/files/data/english/annotations/bn/pri/00/pri_0062.coref'
p799
aS'ontonotes-release-5.0/data/files/data/english/annotations/bn/cnn/03/cnn_0333.coref'
p800
aS'ontonotes-release-5.0/data/files/data/english/annotations/bn/cnn/03/cnn_0394.coref'
p801
aS'ontonotes-release-5.0/data/files/data/english/annotations/bn/cnn/03/cnn_0335.coref'
p802
aS'ontonotes-release-5.0/data/files/data/english/annotations/bn/abc/00/abc_0039.coref'
p803
aS'ontonotes-release-5.0/data/files/data/english/annotations/bn/cnn/02/cnn_0282.coref'
p804
aS'ontonotes-release-5.0/data/files/data/english/annotations/bn/voa/01/voa_0195.coref'
p805
aS'ontonotes-release-5.0/data/files/data/english/annotations/bn/cnn/02/cnn_0268.coref'
p806
aS'ontonotes-release-5.0/data/files/data/english/annotations/bn/voa/01/voa_0107.coref'
p807
aS'ontonotes-release-5.0/data/files/data/english/annotations/bn/pri/00/pri_0056.coref'
p808
aS'ontonotes-release-5.0/data/files/data/english/annotations/bn/voa/01/voa_0138.coref'
p809
aS'ontonotes-release-5.0/data/files/data/english/annotations/bn/cnn/00/cnn_0054.coref'
p810
aS'ontonotes-release-5.0/data/files/data/english/annotations/bn/cnn/04/cnn_0409.coref'
p811
aS'ontonotes-release-5.0/data/files/data/english/annotations/bn/voa/00/voa_0092.coref'
p812
aS'ontonotes-release-5.0/data/files/data/english/annotations/bn/cnn/02/cnn_0287.coref'
p813
aS'ontonotes-release-5.0/data/files/data/english/annotations/bn/cnn/03/cnn_0343.coref'
p814
aS'ontonotes-release-5.0/data/files/data/english/annotations/bn/cnn/03/cnn_0324.coref'
p815
aS'ontonotes-release-5.0/data/files/data/english/annotations/bn/voa/02/voa_0227.coref'
p816
aS'ontonotes-release-5.0/data/files/data/english/annotations/bn/abc/00/abc_0033.coref'
p817
aS'ontonotes-release-5.0/data/files/data/english/annotations/bn/cnn/03/cnn_0368.coref'
p818
aS'ontonotes-release-5.0/data/files/data/english/annotations/bn/cnn/03/cnn_0339.coref'
p819
aS'ontonotes-release-5.0/data/files/data/english/annotations/bn/cnn/00/cnn_0044.coref'
p820
aS'ontonotes-release-5.0/data/files/data/english/annotations/bn/voa/00/voa_0060.coref'
p821
aS'ontonotes-release-5.0/data/files/data/english/annotations/bn/voa/01/voa_0108.coref'
p822
aS'ontonotes-release-5.0/data/files/data/english/annotations/bn/pri/00/pri_0034.coref'
p823
aS'ontonotes-release-5.0/data/files/data/english/annotations/bn/voa/02/voa_0251.coref'
p824
aS'ontonotes-release-5.0/data/files/data/english/annotations/bn/cnn/03/cnn_0347.coref'
p825
aS'ontonotes-release-5.0/data/files/data/english/annotations/bn/voa/00/voa_0009.coref'
p826
aS'ontonotes-release-5.0/data/files/data/english/annotations/bn/cnn/00/cnn_0087.coref'
p827
aS'ontonotes-release-5.0/data/files/data/english/annotations/bn/pri/00/pri_0089.coref'
p828
aS'ontonotes-release-5.0/data/files/data/english/annotations/bn/cnn/02/cnn_0245.coref'
p829
aS'ontonotes-release-5.0/data/files/data/english/annotations/bn/cnn/01/cnn_0123.coref'
p830
aS'ontonotes-release-5.0/data/files/data/english/annotations/bn/pri/00/pri_0040.coref'
p831
aS'ontonotes-release-5.0/data/files/data/english/annotations/bn/voa/01/voa_0120.coref'
p832
aS'ontonotes-release-5.0/data/files/data/english/annotations/bn/voa/00/voa_0082.coref'
p833
aS'ontonotes-release-5.0/data/files/data/english/annotations/bn/cnn/03/cnn_0337.coref'
p834
aS'ontonotes-release-5.0/data/files/data/english/annotations/bn/cnn/01/cnn_0144.coref'
p835
aS'ontonotes-release-5.0/data/files/data/english/annotations/bn/voa/00/voa_0091.coref'
p836
aS'ontonotes-release-5.0/data/files/data/english/annotations/bn/cnn/01/cnn_0175.coref'
p837
aS'ontonotes-release-5.0/data/files/data/english/annotations/bn/cnn/00/cnn_0066.coref'
p838
aS'ontonotes-release-5.0/data/files/data/english/annotations/bn/abc/00/abc_0004.coref'
p839
aS'ontonotes-release-5.0/data/files/data/english/annotations/bn/pri/00/pri_0086.coref'
p840
aS'ontonotes-release-5.0/data/files/data/english/annotations/bn/cnn/02/cnn_0291.coref'
p841
aS'ontonotes-release-5.0/data/files/data/english/annotations/bn/cnn/01/cnn_0128.coref'
p842
aS'ontonotes-release-5.0/data/files/data/english/annotations/bn/cnn/01/cnn_0188.coref'
p843
aS'ontonotes-release-5.0/data/files/data/english/annotations/bn/voa/00/voa_0059.coref'
p844
aS'ontonotes-release-5.0/data/files/data/english/annotations/bn/voa/01/voa_0159.coref'
p845
aS'ontonotes-release-5.0/data/files/data/english/annotations/bn/cnn/01/cnn_0141.coref'
p846
aS'ontonotes-release-5.0/data/files/data/english/annotations/bn/cnn/01/cnn_0134.coref'
p847
aS'ontonotes-release-5.0/data/files/data/english/annotations/bn/abc/00/abc_0009.coref'
p848
aS'ontonotes-release-5.0/data/files/data/english/annotations/bn/nbc/00/nbc_0002.coref'
p849
aS'ontonotes-release-5.0/data/files/data/english/annotations/bn/cnn/01/cnn_0194.coref'
p850
aS'ontonotes-release-5.0/data/files/data/english/annotations/bn/pri/00/pri_0010.coref'
p851
aS'ontonotes-release-5.0/data/files/data/english/annotations/bn/cnn/00/cnn_0092.coref'
p852
aS'ontonotes-release-5.0/data/files/data/english/annotations/bn/cnn/01/cnn_0114.coref'
p853
aS'ontonotes-release-5.0/data/files/data/english/annotations/bn/voa/00/voa_0085.coref'
p854
aS'ontonotes-release-5.0/data/files/data/english/annotations/bn/cnn/03/cnn_0323.coref'
p855
aS'ontonotes-release-5.0/data/files/data/english/annotations/bn/cnn/03/cnn_0306.coref'
p856
aS'ontonotes-release-5.0/data/files/data/english/annotations/bn/pri/00/pri_0071.coref'
p857
aS'ontonotes-release-5.0/data/files/data/english/annotations/bn/voa/01/voa_0188.coref'
p858
aS'ontonotes-release-5.0/data/files/data/english/annotations/bn/voa/00/voa_0070.coref'
p859
aS'ontonotes-release-5.0/data/files/data/english/annotations/bn/nbc/00/nbc_0033.coref'
p860
aS'ontonotes-release-5.0/data/files/data/english/annotations/bn/mnb/00/mnb_0019.coref'
p861
aS'ontonotes-release-5.0/data/files/data/english/annotations/bn/abc/00/abc_0013.coref'
p862
aS'ontonotes-release-5.0/data/files/data/english/annotations/bn/cnn/02/cnn_0292.coref'
p863
aS'ontonotes-release-5.0/data/files/data/english/annotations/bn/cnn/04/cnn_0412.coref'
p864
aS'ontonotes-release-5.0/data/files/data/english/annotations/bn/cnn/03/cnn_0311.coref'
p865
aS'ontonotes-release-5.0/data/files/data/english/annotations/bn/voa/00/voa_0037.coref'
p866
aS'ontonotes-release-5.0/data/files/data/english/annotations/bn/cnn/03/cnn_0309.coref'
p867
aS'ontonotes-release-5.0/data/files/data/english/annotations/bn/pri/00/pri_0099.coref'
p868
aS'ontonotes-release-5.0/data/files/data/english/annotations/bn/cnn/03/cnn_0331.coref'
p869
aS'ontonotes-release-5.0/data/files/data/english/annotations/bn/cnn/03/cnn_0327.coref'
p870
aS'ontonotes-release-5.0/data/files/data/english/annotations/bn/pri/00/pri_0022.coref'
p871
aS'ontonotes-release-5.0/data/files/data/english/annotations/bn/mnb/00/mnb_0017.coref'
p872
aS'ontonotes-release-5.0/data/files/data/english/annotations/bn/pri/00/pri_0054.coref'
p873
aS'ontonotes-release-5.0/data/files/data/english/annotations/bn/cnn/00/cnn_0049.coref'
p874
aS'ontonotes-release-5.0/data/files/data/english/annotations/bn/cnn/03/cnn_0377.coref'
p875
aS'ontonotes-release-5.0/data/files/data/english/annotations/bn/voa/00/voa_0035.coref'
p876
aS'ontonotes-release-5.0/data/files/data/english/annotations/bn/cnn/01/cnn_0105.coref'
p877
aS'ontonotes-release-5.0/data/files/data/english/annotations/bn/voa/02/voa_0235.coref'
p878
aS'ontonotes-release-5.0/data/files/data/english/annotations/bn/voa/01/voa_0124.coref'
p879
aS'ontonotes-release-5.0/data/files/data/english/annotations/bn/abc/00/abc_0011.coref'
p880
aS'ontonotes-release-5.0/data/files/data/english/annotations/bn/voa/02/voa_0205.coref'
p881
aS'ontonotes-release-5.0/data/files/data/english/annotations/bn/voa/01/voa_0139.coref'
p882
aS'ontonotes-release-5.0/data/files/data/english/annotations/bn/cnn/02/cnn_0239.coref'
p883
aS'ontonotes-release-5.0/data/files/data/english/annotations/bn/pri/00/pri_0011.coref'
p884
aS'ontonotes-release-5.0/data/files/data/english/annotations/bn/cnn/02/cnn_0293.coref'
p885
aS'ontonotes-release-5.0/data/files/data/english/annotations/bn/voa/01/voa_0104.coref'
p886
aS'ontonotes-release-5.0/data/files/data/english/annotations/bn/cnn/02/cnn_0223.coref'
p887
aS'ontonotes-release-5.0/data/files/data/english/annotations/bn/mnb/00/mnb_0020.coref'
p888
aS'ontonotes-release-5.0/data/files/data/english/annotations/bn/cnn/00/cnn_0078.coref'
p889
aS'ontonotes-release-5.0/data/files/data/english/annotations/bn/cnn/03/cnn_0375.coref'
p890
aS'ontonotes-release-5.0/data/files/data/english/annotations/bn/voa/01/voa_0130.coref'
p891
aS'ontonotes-release-5.0/data/files/data/english/annotations/bn/voa/00/voa_0034.coref'
p892
aS'ontonotes-release-5.0/data/files/data/english/annotations/bn/voa/00/voa_0054.coref'
p893
aS'ontonotes-release-5.0/data/files/data/english/annotations/bn/cnn/00/cnn_0069.coref'
p894
aS'ontonotes-release-5.0/data/files/data/english/annotations/bn/cnn/02/cnn_0288.coref'
p895
aS'ontonotes-release-5.0/data/files/data/english/annotations/bn/pri/00/pri_0025.coref'
p896
aS'ontonotes-release-5.0/data/files/data/english/annotations/bn/mnb/00/mnb_0011.coref'
p897
aS'ontonotes-release-5.0/data/files/data/english/annotations/bn/abc/00/abc_0029.coref'
p898
aS'ontonotes-release-5.0/data/files/data/english/annotations/bn/voa/01/voa_0175.coref'
p899
aS'ontonotes-release-5.0/data/files/data/english/annotations/bn/pri/00/pri_0061.coref'
p900
aS'ontonotes-release-5.0/data/files/data/english/annotations/bn/voa/01/voa_0101.coref'
p901
aS'ontonotes-release-5.0/data/files/data/english/annotations/bn/pri/00/pri_0097.coref'
p902
aS'ontonotes-release-5.0/data/files/data/english/annotations/bn/cnn/01/cnn_0127.coref'
p903
aS'ontonotes-release-5.0/data/files/data/english/annotations/bn/abc/00/abc_0019.coref'
p904
aS'ontonotes-release-5.0/data/files/data/english/annotations/bn/cnn/01/cnn_0149.coref'
p905
aS'ontonotes-release-5.0/data/files/data/english/annotations/bn/cnn/01/cnn_0108.coref'
p906
aS'ontonotes-release-5.0/data/files/data/english/annotations/bn/cnn/02/cnn_0294.coref'
p907
aS'ontonotes-release-5.0/data/files/data/english/annotations/bn/abc/00/abc_0051.coref'
p908
aS'ontonotes-release-5.0/data/files/data/english/annotations/bn/voa/00/voa_0001.coref'
p909
aS'ontonotes-release-5.0/data/files/data/english/annotations/bn/voa/01/voa_0123.coref'
p910
aS'ontonotes-release-5.0/data/files/data/english/annotations/bn/cnn/03/cnn_0388.coref'
p911
aS'ontonotes-release-5.0/data/files/data/english/annotations/bn/cnn/01/cnn_0199.coref'
p912
aS'ontonotes-release-5.0/data/files/data/english/annotations/bn/nbc/00/nbc_0007.coref'
p913
aS'ontonotes-release-5.0/data/files/data/english/annotations/bn/voa/00/voa_0027.coref'
p914
aS'ontonotes-release-5.0/data/files/data/english/annotations/bn/pri/00/pri_0057.coref'
p915
aS'ontonotes-release-5.0/data/files/data/english/annotations/bn/cnn/02/cnn_0283.coref'
p916
aS'ontonotes-release-5.0/data/files/data/english/annotations/bn/cnn/03/cnn_0301.coref'
p917
aS'ontonotes-release-5.0/data/files/data/english/annotations/bn/cnn/03/cnn_0307.coref'
p918
aS'ontonotes-release-5.0/data/files/data/english/annotations/bn/voa/00/voa_0083.coref'
p919
aS'ontonotes-release-5.0/data/files/data/english/annotations/bn/cnn/03/cnn_0395.coref'
p920
aS'ontonotes-release-5.0/data/files/data/english/annotations/bn/cnn/02/cnn_0276.coref'
p921
aS'ontonotes-release-5.0/data/files/data/english/annotations/bn/voa/00/voa_0061.coref'
p922
aS'ontonotes-release-5.0/data/files/data/english/annotations/bn/voa/01/voa_0181.coref'
p923
aS'ontonotes-release-5.0/data/files/data/english/annotations/bn/cnn/04/cnn_0416.coref'
p924
aS'ontonotes-release-5.0/data/files/data/english/annotations/bn/voa/01/voa_0149.coref'
p925
aS'ontonotes-release-5.0/data/files/data/english/annotations/bn/voa/00/voa_0038.coref'
p926
aS'ontonotes-release-5.0/data/files/data/english/annotations/bn/abc/00/abc_0018.coref'
p927
aS'ontonotes-release-5.0/data/files/data/english/annotations/bn/cnn/01/cnn_0111.coref'
p928
aS'ontonotes-release-5.0/data/files/data/english/annotations/bn/abc/00/abc_0052.coref'
p929
aS'ontonotes-release-5.0/data/files/data/english/annotations/bn/cnn/02/cnn_0228.coref'
p930
aS'ontonotes-release-5.0/data/files/data/english/annotations/bn/cnn/02/cnn_0254.coref'
p931
aS'ontonotes-release-5.0/data/files/data/english/annotations/bn/cnn/04/cnn_0400.coref'
p932
aS'ontonotes-release-5.0/data/files/data/english/annotations/bn/pri/00/pri_0041.coref'
p933
aS'ontonotes-release-5.0/data/files/data/english/annotations/bn/voa/02/voa_0212.coref'
p934
aS'ontonotes-release-5.0/data/files/data/english/annotations/bn/cnn/04/cnn_0427.coref'
p935
aS'ontonotes-release-5.0/data/files/data/english/annotations/bn/cnn/04/cnn_0433.coref'
p936
aS'ontonotes-release-5.0/data/files/data/english/annotations/bn/abc/00/abc_0044.coref'
p937
aS'ontonotes-release-5.0/data/files/data/english/annotations/bn/pri/00/pri_0013.coref'
p938
aS'ontonotes-release-5.0/data/files/data/english/annotations/bn/pri/00/pri_0066.coref'
p939
aS'ontonotes-release-5.0/data/files/data/english/annotations/bn/abc/00/abc_0042.coref'
p940
aS'ontonotes-release-5.0/data/files/data/english/annotations/bn/pri/00/pri_0043.coref'
p941
aS'ontonotes-release-5.0/data/files/data/english/annotations/bn/nbc/00/nbc_0010.coref'
p942
aS'ontonotes-release-5.0/data/files/data/english/annotations/bn/cnn/03/cnn_0321.coref'
p943
aS'ontonotes-release-5.0/data/files/data/english/annotations/bn/cnn/01/cnn_0133.coref'
p944
aS'ontonotes-release-5.0/data/files/data/english/annotations/bn/cnn/02/cnn_0267.coref'
p945
aS'ontonotes-release-5.0/data/files/data/english/annotations/bn/voa/01/voa_0109.coref'
p946
aS'ontonotes-release-5.0/data/files/data/english/annotations/bn/cnn/01/cnn_0136.coref'
p947
a.